(dp0
I0
(lp1
V@bmwindia # birthday cake#fan# keep loving #BMW rocks https://t.co/zbEk5gFSn2
p2
aVI'm in love with this car. #AllNewBMW7Series  @bmwindia https://t.co/BbW3YBb0gD
p3
aVBeautiful car... Thank you @bmwindia for the memorable test drive. I booked the car.. You guys Harry up...  https://t.co/7lEkmtqKJq
p4
aVDream. https://t.co/eJj3Dx1OED
p5
aVRT @KrishnaGaurav1: @bmwindia most beautiful elegant business class sedan
p6
aV@bmwindia amazing car. I am in love with this. Soon will meet this love of mine.
p7
aVRT @imsuryamani: @bmwindia wow amazing. What a look?
p8
aVRT @tarunn0: @bmwindia wat a class of ride
p9
aVRT @jyothishkd: @bmwindia Will you give me one for free, please?
p10
aVSo exciting! Yay! #AllnewBMW7series #bmwindia #whoohoo #luxuryride #class #motorhead  https://t.co/UJLFoIJZmD
p11
aV@bmwindia how much does it cost..??
p12
aV#BMW 7Series. https://t.co/SYMfMTlXDR
p13
aV@bmwindia absolutely brilliant!!!
p14
aV@bmwindia just saw the #AllNewBMW7Series #advertisement &amp; I already got a huge crush there!
p15
aV@bmwindia good
p16
aVRT @bmwindia: Recently, Mumbai experienced the most luxurious BMW ever built, the all-new BMW 7 Series. https://t.co/QCXutgZXRN
p17
aVRT @bmwindia: BMW India wishes the cricket legend Sachin Tendulkar a very Happy Birthday! @sachin_rt https://t.co/HYDyTEQ2Vi
p18
aV@bmwindia my all tym fav car...:)
p19
aV#AllNewBMW7Series\u000a"The best way to predict the future is to create it."\u263a\u000aWoahh @bmwindia https://t.co/8OpWh4wyJb
p20
aVBMW GT luxury line it is for me  https://t.co/HgK9yiJ35Z
p21
aV@bmwindia must say that it's really luxurious!!! #AllNewBMW7Series
p22
aV@bmwindia most beautiful elegant business class sedan
p23
aV"@bmwindia: Discover the phenomenon that\u2019s driving the future of luxury \u2013 the most luxurious BMW ever built.\u000ahttps://t.co/B2cd50bzPA"
p24
aV@bmwindia nice caaaare
p25
aV@bmwindia Will you give me one for free, please?
p26
aV@bmwindia  Please connect with us @MSFI_India to join in Food Safety awareness also tweet with #iSupportMSFI showing your thoughts.
p27
aV@bmwindia wow amazing. What a look?
p28
aV@bmwindia wat a class of ride
p29
aV"@bmwindia: Discover the phenomenon that\u2019s driving the future of luxury \u2013 the most luxurious BMW ever built.\u000ahttps://t.co/8zTQR8Ca6I"
p30
aV#BMW7Series One of the best ever indeed. Sheer driving pleasure and @bmwindia just made it even better!! \U0001f60d\u2728 https://t.co/jVvXIk6PbE
p31
aVRT @bmwindia: The BMW Display Key for the all-new BMW 7 Series unlocks a world of innovations https://t.co/VCfrEFq7qS https://t.co/k7LtyX11\u2026
p32
aVRT @bmwindia: Push your imagination with Gesture Control in the all-new BMW 7 Series. #DrivingLuxury https://t.co/VCfrEF8w2i https://t.co/C\u2026
p33
aVRT @bmwindia: A new age of mobility is unfolding. One that is alive to your needs. The BMW VISION NEXT 100 https://t.co/6pgMYhtQnY https://\u2026
p34
aVRT @bmwindia: When the sun is shining bright, It\u2019s always a good idea to keep a BMW Collection Umbrella handy. https://t.co/ExqdqW8uzy
p35
aVRT @bmwindia: The BMW Display Key for the all-new BMW 7 Series unlocks a world of innovations https://t.co/VCfrEFq7qS https://t.co/k7LtyX11\u2026
p36
aVRT @bmwindia: A new age of mobility is unfolding. One that is alive to your needs. The BMW VISION NEXT 100 https://t.co/6pgMYhtQnY https://\u2026
p37
aVRT @bmwindia: A new age of mobility is unfolding. One that is alive to your needs. The BMW VISION NEXT 100 https://t.co/6pgMYhtQnY https://\u2026
p38
aVRT @bmwindia: A new age of mobility is unfolding. One that is alive to your needs. The BMW VISION NEXT 100 https://t.co/6pgMYhtQnY https://\u2026
p39
aV@tarak9999 New @bmwindia 7 Series \u000aTS9EL9999 \U0001f697\U0001f60e\U0001f609 https://t.co/PCWLwSsOvN
p40
aVRT @bmwindia: We use Original BMW Parts, ensuring your BMW remains 100% BMW. #InGoodHands https://t.co/KUSOhU5aTa https://t.co/nvD2mFXdOI
p41
aV@bmwindia lets co-brand it with Habitat for Humanit India.
p42
aV@bmwindia so how does one get their hands on it
p43
aVRT @bmwindia: When the sun is shining bright, It\u2019s always a good idea to keep a BMW Collection Umbrella handy. https://t.co/ExqdqW8uzy
p44
aVRT @bmwindia: The BMW Display Key for the all-new BMW 7 Series unlocks a world of innovations https://t.co/VCfrEFq7qS https://t.co/k7LtyX11\u2026
p45
aVRT @bmwindia: The BMW Display Key for the all-new BMW 7 Series unlocks a world of innovations https://t.co/VCfrEFq7qS https://t.co/k7LtyX11\u2026
p46
aVRT @bmwindia: When the sun is shining bright, It\u2019s always a good idea to keep a BMW Collection Umbrella handy. https://t.co/ExqdqW8uzy
p47
aVRT @bmwindia: A new age of mobility is unfolding. One that is alive to your needs. The BMW VISION NEXT 100 https://t.co/6pgMYhtQnY https://\u2026
p48
aVExperience Suku Shah\u2019s love for his BMW 323i (E21). See his story. Then share yours. #BMWstories @OliveTreeIndia https://t.co/VwkB0BadtL
p49
aV@bmwindia surely buying one!! Available where in Delhi NCR. faridabad or moti nagar deutche motoren??
p50
aVRT @bmwindia: When the sun is shining bright, It\u2019s always a good idea to keep a BMW Collection Umbrella handy. https://t.co/ExqdqW8uzy
p51
aVRT @bmwindia: When the sun is shining bright, It\u2019s always a good idea to keep a BMW Collection Umbrella handy. https://t.co/ExqdqW8uzy
p52
aVRT @bmwindia: When the sun is shining bright, It\u2019s always a good idea to keep a BMW Collection Umbrella handy. https://t.co/ExqdqW8uzy
p53
aVWhen the sun is shining bright, It\u2019s always a good idea to keep a BMW Collection Umbrella handy. https://t.co/ExqdqW8uzy
p54
aVRT @bmwindia: A new age of mobility is unfolding. One that is alive to your needs. The BMW VISION NEXT 100 https://t.co/6pgMYhtQnY https://\u2026
p55
aVCongrats  https://t.co/RU1zklCED8
p56
aVRT @bmwindia: A new age of mobility is unfolding. One that is alive to your needs. The BMW VISION NEXT 100 https://t.co/6pgMYhtQnY https://\u2026
p57
aVRT @bmwindia: A new age of mobility is unfolding. One that is alive to your needs. The BMW VISION NEXT 100 https://t.co/6pgMYhtQnY https://\u2026
p58
aVA new age of mobility is unfolding. One that is alive to your needs. The BMW VISION NEXT 100 https://t.co/6pgMYhtQnY https://t.co/yqsURphRSm
p59
aV@bmwindia simply awesome !!
p60
aVRT @bmwindia: The BMW Display Key for the all-new BMW 7 Series unlocks a world of innovations https://t.co/VCfrEFq7qS https://t.co/k7LtyX11\u2026
p61
aVRT @bmwindia: The BMW Display Key for the all-new BMW 7 Series unlocks a world of innovations https://t.co/VCfrEFq7qS https://t.co/k7LtyX11\u2026
p62
aVRT @bmwindia: The BMW Display Key for the all-new BMW 7 Series unlocks a world of innovations https://t.co/VCfrEFq7qS https://t.co/k7LtyX11\u2026
p63
aVRT @bmwindia: Highlights of the BMW Experience Tour, Bhopal Edition, 2016. https://t.co/PLSAQfbw8m
p64
aVRT @bmwindia: BMW India wishes the cricket legend Sachin Tendulkar a very Happy Birthday! @sachin_rt https://t.co/HYDyTEQ2Vi
p65
aVRT @bmwindia: The BMW Display Key for the all-new BMW 7 Series unlocks a world of innovations https://t.co/VCfrEFq7qS https://t.co/k7LtyX11\u2026
p66
aVRT @bmwindia: BMW India wishes the cricket legend Sachin Tendulkar a very Happy Birthday! @sachin_rt https://t.co/HYDyTEQ2Vi
p67
aVRT @bmwindia: Highlights of the BMW Experience Tour, Bhopal Edition, 2016. https://t.co/PLSAQfbw8m
p68
aVRT @bmwindia: The BMW Display Key for the all-new BMW 7 Series unlocks a world of innovations https://t.co/VCfrEFq7qS https://t.co/k7LtyX11\u2026
p69
aVHighlights of the BMW Experience Tour, Bhopal Edition, 2016. https://t.co/PLSAQfbw8m
p70
aVRT @bmwindia: The BMW Display Key for the all-new BMW 7 Series unlocks a world of innovations https://t.co/VCfrEFq7qS https://t.co/k7LtyX11\u2026
p71
aVRT @bmwindia: The BMW Display Key for the all-new BMW 7 Series unlocks a world of innovations https://t.co/VCfrEFq7qS https://t.co/k7LtyX11\u2026
p72
aVRT @bmwindia: The BMW Display Key for the all-new BMW 7 Series unlocks a world of innovations https://t.co/VCfrEFq7qS https://t.co/k7LtyX11\u2026
p73
aVRT @bmwindia: BMW India wishes the cricket legend Sachin Tendulkar a very Happy Birthday! @sachin_rt https://t.co/HYDyTEQ2Vi
p74
aVRT @bmwindia: The BMW Display Key for the all-new BMW 7 Series unlocks a world of innovations https://t.co/VCfrEFq7qS https://t.co/k7LtyX11\u2026
p75
aVThe BMW Display Key for the all-new BMW 7 Series unlocks a world of innovations https://t.co/VCfrEFq7qS https://t.co/k7LtyX11jg
p76
aVRT @bmwindia: BMW India wishes the cricket legend Sachin Tendulkar a very Happy Birthday! @sachin_rt https://t.co/HYDyTEQ2Vi
p77
aVRT @bmwindia: BMW India wishes the cricket legend Sachin Tendulkar a very Happy Birthday! @sachin_rt https://t.co/HYDyTEQ2Vi
p78
as.