(dp0
I0
(lp1
VBeautiful car... Thank you @bmwindia for the memorable test drive. I booked the car.. You guys Harry up...  https://t.co/7lEkmtqKJq
p2
aVDream. https://t.co/eJj3Dx1OED
p3
aVRT @KrishnaGaurav1: @bmwindia most beautiful elegant business class sedan
p4
aV@bmwindia amazing car. I am in love with this. Soon will meet this love of mine.
p5
aVRT @imsuryamani: @bmwindia wow amazing. What a look?
p6
aVRT @tarunn0: @bmwindia wat a class of ride
p7
aVRT @jyothishkd: @bmwindia Will you give me one for free, please?
p8
aVSo exciting! Yay! #AllnewBMW7series #bmwindia #whoohoo #luxuryride #class #motorhead  https://t.co/UJLFoIJZmD
p9
aV@bmwindia how much does it cost..??
p10
aV#BMW 7Series. https://t.co/SYMfMTlXDR
p11
aV@bmwindia absolutely brilliant!!!
p12
aV@bmwindia just saw the #AllNewBMW7Series #advertisement &amp; I already got a huge crush there!
p13
aV@bmwindia good
p14
aVRT @bmwindia: Recently, Mumbai experienced the most luxurious BMW ever built, the all-new BMW 7 Series. https://t.co/QCXutgZXRN
p15
aVRT @bmwindia: BMW India wishes the cricket legend Sachin Tendulkar a very Happy Birthday! @sachin_rt https://t.co/HYDyTEQ2Vi
p16
aV@bmwindia my all tym fav car...:)
p17
aV#AllNewBMW7Series\u000a"The best way to predict the future is to create it."\u263a\u000aWoahh @bmwindia https://t.co/8OpWh4wyJb
p18
aVBMW GT luxury line it is for me  https://t.co/HgK9yiJ35Z
p19
aV@bmwindia must say that it's really luxurious!!! #AllNewBMW7Series
p20
aV@bmwindia most beautiful elegant business class sedan
p21
aV"@bmwindia: Discover the phenomenon that\u2019s driving the future of luxury \u2013 the most luxurious BMW ever built.\u000ahttps://t.co/B2cd50bzPA"
p22
aV@bmwindia nice caaaare
p23
aV@bmwindia Will you give me one for free, please?
p24
aV@bmwindia  Please connect with us @MSFI_India to join in Food Safety awareness also tweet with #iSupportMSFI showing your thoughts.
p25
aV@bmwindia wow amazing. What a look?
p26
aV@bmwindia wat a class of ride
p27
aV"@bmwindia: Discover the phenomenon that\u2019s driving the future of luxury \u2013 the most luxurious BMW ever built.\u000ahttps://t.co/8zTQR8Ca6I"
p28
aV#BMW7Series One of the best ever indeed. Sheer driving pleasure and @bmwindia just made it even better!! \U0001f60d\u2728 https://t.co/jVvXIk6PbE
p29
aVRT @bmwindia: The BMW Display Key for the all-new BMW 7 Series unlocks a world of innovations https://t.co/VCfrEFq7qS https://t.co/k7LtyX11\u2026
p30
aVRT @bmwindia: Push your imagination with Gesture Control in the all-new BMW 7 Series. #DrivingLuxury https://t.co/VCfrEF8w2i https://t.co/C\u2026
p31
aVRT @bmwindia: A new age of mobility is unfolding. One that is alive to your needs. The BMW VISION NEXT 100 https://t.co/6pgMYhtQnY https://\u2026
p32
aVRT @bmwindia: When the sun is shining bright, It\u2019s always a good idea to keep a BMW Collection Umbrella handy. https://t.co/ExqdqW8uzy
p33
aVRT @bmwindia: The BMW Display Key for the all-new BMW 7 Series unlocks a world of innovations https://t.co/VCfrEFq7qS https://t.co/k7LtyX11\u2026
p34
aVRT @bmwindia: A new age of mobility is unfolding. One that is alive to your needs. The BMW VISION NEXT 100 https://t.co/6pgMYhtQnY https://\u2026
p35
aVRT @bmwindia: A new age of mobility is unfolding. One that is alive to your needs. The BMW VISION NEXT 100 https://t.co/6pgMYhtQnY https://\u2026
p36
aVRT @bmwindia: A new age of mobility is unfolding. One that is alive to your needs. The BMW VISION NEXT 100 https://t.co/6pgMYhtQnY https://\u2026
p37
aV@tarak9999 New @bmwindia 7 Series \u000aTS9EL9999 \U0001f697\U0001f60e\U0001f609 https://t.co/PCWLwSsOvN
p38
aVRT @bmwindia: We use Original BMW Parts, ensuring your BMW remains 100% BMW. #InGoodHands https://t.co/KUSOhU5aTa https://t.co/nvD2mFXdOI
p39
aV@bmwindia lets co-brand it with Habitat for Humanit India.
p40
aV@bmwindia so how does one get their hands on it
p41
aVRT @bmwindia: When the sun is shining bright, It\u2019s always a good idea to keep a BMW Collection Umbrella handy. https://t.co/ExqdqW8uzy
p42
aVRT @bmwindia: The BMW Display Key for the all-new BMW 7 Series unlocks a world of innovations https://t.co/VCfrEFq7qS https://t.co/k7LtyX11\u2026
p43
aVRT @bmwindia: The BMW Display Key for the all-new BMW 7 Series unlocks a world of innovations https://t.co/VCfrEFq7qS https://t.co/k7LtyX11\u2026
p44
aVRT @bmwindia: When the sun is shining bright, It\u2019s always a good idea to keep a BMW Collection Umbrella handy. https://t.co/ExqdqW8uzy
p45
aVRT @bmwindia: A new age of mobility is unfolding. One that is alive to your needs. The BMW VISION NEXT 100 https://t.co/6pgMYhtQnY https://\u2026
p46
aVExperience Suku Shah\u2019s love for his BMW 323i (E21). See his story. Then share yours. #BMWstories @OliveTreeIndia https://t.co/VwkB0BadtL
p47
aV@bmwindia surely buying one!! Available where in Delhi NCR. faridabad or moti nagar deutche motoren??
p48
aVRT @bmwindia: When the sun is shining bright, It\u2019s always a good idea to keep a BMW Collection Umbrella handy. https://t.co/ExqdqW8uzy
p49
aVRT @bmwindia: When the sun is shining bright, It\u2019s always a good idea to keep a BMW Collection Umbrella handy. https://t.co/ExqdqW8uzy
p50
aVRT @bmwindia: When the sun is shining bright, It\u2019s always a good idea to keep a BMW Collection Umbrella handy. https://t.co/ExqdqW8uzy
p51
aVWhen the sun is shining bright, It\u2019s always a good idea to keep a BMW Collection Umbrella handy. https://t.co/ExqdqW8uzy
p52
aVRT @bmwindia: A new age of mobility is unfolding. One that is alive to your needs. The BMW VISION NEXT 100 https://t.co/6pgMYhtQnY https://\u2026
p53
aVCongrats  https://t.co/RU1zklCED8
p54
aVRT @bmwindia: A new age of mobility is unfolding. One that is alive to your needs. The BMW VISION NEXT 100 https://t.co/6pgMYhtQnY https://\u2026
p55
aVRT @bmwindia: A new age of mobility is unfolding. One that is alive to your needs. The BMW VISION NEXT 100 https://t.co/6pgMYhtQnY https://\u2026
p56
aVA new age of mobility is unfolding. One that is alive to your needs. The BMW VISION NEXT 100 https://t.co/6pgMYhtQnY https://t.co/yqsURphRSm
p57
aV@bmwindia simply awesome !!
p58
aVRT @bmwindia: The BMW Display Key for the all-new BMW 7 Series unlocks a world of innovations https://t.co/VCfrEFq7qS https://t.co/k7LtyX11\u2026
p59
aVRT @bmwindia: The BMW Display Key for the all-new BMW 7 Series unlocks a world of innovations https://t.co/VCfrEFq7qS https://t.co/k7LtyX11\u2026
p60
aVRT @bmwindia: The BMW Display Key for the all-new BMW 7 Series unlocks a world of innovations https://t.co/VCfrEFq7qS https://t.co/k7LtyX11\u2026
p61
aVRT @bmwindia: Highlights of the BMW Experience Tour, Bhopal Edition, 2016. https://t.co/PLSAQfbw8m
p62
aVRT @bmwindia: BMW India wishes the cricket legend Sachin Tendulkar a very Happy Birthday! @sachin_rt https://t.co/HYDyTEQ2Vi
p63
aVRT @bmwindia: The BMW Display Key for the all-new BMW 7 Series unlocks a world of innovations https://t.co/VCfrEFq7qS https://t.co/k7LtyX11\u2026
p64
aVRT @bmwindia: BMW India wishes the cricket legend Sachin Tendulkar a very Happy Birthday! @sachin_rt https://t.co/HYDyTEQ2Vi
p65
aVRT @bmwindia: Highlights of the BMW Experience Tour, Bhopal Edition, 2016. https://t.co/PLSAQfbw8m
p66
aVRT @bmwindia: The BMW Display Key for the all-new BMW 7 Series unlocks a world of innovations https://t.co/VCfrEFq7qS https://t.co/k7LtyX11\u2026
p67
aVHighlights of the BMW Experience Tour, Bhopal Edition, 2016. https://t.co/PLSAQfbw8m
p68
aVRT @bmwindia: The BMW Display Key for the all-new BMW 7 Series unlocks a world of innovations https://t.co/VCfrEFq7qS https://t.co/k7LtyX11\u2026
p69
aVRT @bmwindia: The BMW Display Key for the all-new BMW 7 Series unlocks a world of innovations https://t.co/VCfrEFq7qS https://t.co/k7LtyX11\u2026
p70
aVRT @bmwindia: The BMW Display Key for the all-new BMW 7 Series unlocks a world of innovations https://t.co/VCfrEFq7qS https://t.co/k7LtyX11\u2026
p71
aVRT @bmwindia: BMW India wishes the cricket legend Sachin Tendulkar a very Happy Birthday! @sachin_rt https://t.co/HYDyTEQ2Vi
p72
aVRT @bmwindia: The BMW Display Key for the all-new BMW 7 Series unlocks a world of innovations https://t.co/VCfrEFq7qS https://t.co/k7LtyX11\u2026
p73
aVThe BMW Display Key for the all-new BMW 7 Series unlocks a world of innovations https://t.co/VCfrEFq7qS https://t.co/k7LtyX11jg
p74
aVRT @bmwindia: BMW India wishes the cricket legend Sachin Tendulkar a very Happy Birthday! @sachin_rt https://t.co/HYDyTEQ2Vi
p75
aVRT @bmwindia: BMW India wishes the cricket legend Sachin Tendulkar a very Happy Birthday! @sachin_rt https://t.co/HYDyTEQ2Vi
p76
as.