(dp0
I0
(lp1
VCell Phone USA : Samsung Galaxy S7 Duos SM-G930FD (FACTORY UNLOCKED) - Black White Silver \u2026 https://t.co/mukw1jQG2X https://t.co/e2t11fomts
p2
aVRT @ziovo_: We've teamed up with @SlickWraps to give away a Samsung Galaxy S7 Edge! Enter here: https://t.co/Uv8mX9zxuM :) https://t.co/Tbp\u2026
p3
aVRT @SlickWraps: Galaxy S7 Edge International Giveaway Starts Now! \u000a\u000aContest Rules: https://t.co/LBQZHRtFQv https://t.co/hfDzjHJGSJ
p4
aVRT @shane_barker: Qmadix C Series Samsung Galaxy S7 edge Green Unboxing Review @Qmadix https://t.co/TGinngQYIu via @CHRISVOSS
p5
aV14 Best Samsung Galaxy S7 Cases https://t.co/1dzo47ro9T #technews
p6
aVRT @shane_barker: Qmadix C Series Samsung Galaxy S7 edge Green Unboxing Review @Qmadix https://t.co/TGinngQYIu via @CHRISVOSS
p7
aVMobile nirvana? Samsung Galaxy S7 Edge and Garmin Fenix 3 HR are as good as it gets: With the vast number of s... https://t.co/RqdMVbmebp
p8
aVBest Samsung Galaxy S7 Deals https://t.co/8uFo7YTTFh #smartworld #tech
p9
aVRT @shane_barker: Qmadix C Series Samsung Galaxy S7 edge Green Unboxing Review @Qmadix https://t.co/TGinngQYIu via @CHRISVOSS
p10
aVLook! Samsung Galaxy S7 Edge SM-G935A - 32GB - BLACK (AT&amp;T) Smartphone #2428 https://t.co/o9z7XDEG7b https://t.co/8tqpi9RfDm
p11
aVRT @SamsungCanada: Expand your #GalaxyS7 with a microSD card &amp; keep your photos/videos in the palm of your hand https://t.co/wPiYUJrFvu htt\u2026
p12
aVRT @shane_barker: Qmadix C Series Samsung Galaxy S7 edge Green Unboxing Review @Qmadix https://t.co/TGinngQYIu via @CHRISVOSS
p13
aVRT @shane_barker: Qmadix C Series Samsung Galaxy S7 edge Green Unboxing Review @Qmadix https://t.co/TGinngQYIu via @CHRISVOSS
p14
aVRT @shane_barker: Qmadix C Series Samsung Galaxy S7 edge Green Unboxing Review @Qmadix https://t.co/TGinngQYIu via @CHRISVOSS
p15
aVRT @shane_barker: Qmadix C Series Samsung Galaxy S7 edge Green Unboxing Review @Qmadix https://t.co/TGinngQYIu via @CHRISVOSS
p16
aVRT @samsungmobileng: Win A Samsung Galaxy S7 Edge! #TechMeetsArtNG https://t.co/7JzYFm4Nma  @ReleGallery @Kitchnbutterfly @DooneysKitchen @\u2026
p17
aVNew Samsung Galaxy S7 Edge G935T 32GB Gold Kit GSM Unlocked 12MP Smartphone - Bid Now! Onl\u2026 https://t.co/Akm0wk2Pm6 https://t.co/cm9HklcbGv
p18
aVNew Samsung Galaxy S7 Edge G935T 32GB Gold Kit GSM Unlocked 12MP Smartphone - Bid Now! Onl\u2026 https://t.co/5mYhFVFAM8 https://t.co/jywXMp25ql
p19
aV14 Best Samsung Galaxy S7 Cases https://t.co/JcUH0nn9cu https://t.co/s2aNlOZk88
p20
aVRT @shane_barker: Qmadix C Series Samsung Galaxy S7 edge Green Unboxing Review @Qmadix https://t.co/TGinngQYIu via @CHRISVOSS
p21
aVCan't wait to get the new Samsung Galaxy S7!!!
p22
aVRT @shane_barker: Qmadix C Series Samsung Galaxy S7 edge Green Unboxing Review @Qmadix https://t.co/TGinngQYIu via @CHRISVOSS
p23
aVRT @shane_barker: Qmadix C Series Samsung Galaxy S7 edge Green Unboxing Review @Qmadix https://t.co/TGinngQYIu via @CHRISVOSS
p24
aVNew Samsung Galaxy S7 Edge G935T 32GB Gold Kit GSM Unlocked 12MP Smartphone - Bid Now! Onl\u2026 https://t.co/qRATEJSInx https://t.co/t5Xcx1gAea
p25
aVRT @shane_barker: Qmadix C Series Samsung Galaxy S7 edge Green Unboxing Review @Qmadix https://t.co/TGinngQYIu via @CHRISVOSS
p26
aVNew Samsung Galaxy S7 Edge G935T 32GB Gold Kit GSM Unlocked 12MP Smartphone - Bid Now! Onl\u2026 https://t.co/xNiOQFEjfV https://t.co/oINtCEMVom
p27
aVNew Samsung Galaxy S7 Edge G935T 32GB Gold Kit GSM Unlocked 12MP Smartphone - Bid Now! Onl\u2026 https://t.co/CpVZV4m2L2 https://t.co/4V9JgRmc5K
p28
aVNew Samsung Galaxy S7 Edge G935T 32GB Gold Kit GSM Unlocked 12MP Smartphone - Bid Now! Onl\u2026 https://t.co/Sglsz4Oy4X https://t.co/nBUmskeoO8
p29
aVNew Samsung Galaxy S7 Edge G935T 32GB Gold Kit GSM Unlocked 12MP Smartphone - Bid Now! Onl\u2026 https://t.co/dRo3ljqH62 https://t.co/0FUJsaDVSP
p30
aVNew Samsung Galaxy S7 Edge G935T 32GB Gold Kit GSM Unlocked 12MP Smartphone - Bid Now! Onl\u2026 https://t.co/aCClZZ6lTZ https://t.co/4zOMJcRjra
p31
aVNew Samsung Galaxy S7 Edge G935T 32GB Gold Kit GSM Unlocked 12MP Smartphone - Bid Now! Onl\u2026 https://t.co/DkkH6pBkcH https://t.co/8rY2tlgPHP
p32
aVMarie OtterBox Samsung Galaxy S7 Case https://t.co/LaMhCZ4O37 https://t.co/RbunWXkki7
p33
aVVr Virtual Reality Headset 3D Glasses  Goggles For Samsung Galaxy S7/Edge/Note 5 https://t.co/9jAHq1t1XT https://t.co/Vq9eqMq8jU
p34
aV#NEW Samsung Gear VR Virtual Reality ... \u000ahttps://t.co/ZyXxhlxvT6\u000aPLZ #Retweet To Your #VirtualReality Friends! https://t.co/aWLK9LaGDZ
p35
aVRT @ziovo_: We've teamed up with @SlickWraps to give away a Samsung Galaxy S7 Edge! Enter here: https://t.co/Uv8mX9zxuM :) https://t.co/Tbp\u2026
p36
aVWhen my Galaxy S7 gets here, I may or may not decide to pour champagne on it like Lil' Wayne.
p37
aVRT @SlickWraps: Galaxy S7 Edge International Giveaway Starts Now! \u000a\u000aContest Rules: https://t.co/LBQZHRtFQv https://t.co/hfDzjHJGSJ
p38
aVCell Phones #421 Deals :https://t.co/ypcgNehmUw Samsung Galaxy S7 Edge G935FD 32GB Dual Sim Phone Silver Brand Ne\u2026 https://t.co/W7H9CgmKtx
p39
aVNew Samsung Galaxy S7 Edge G935T 32GB Gold Kit GSM Unlocked 12MP Smartphone - Bid Now! Onl\u2026 https://t.co/5ObfGz3Kyw https://t.co/IxNNJ7nasC
p40
aVNew Samsung Galaxy S7 Edge G935T 32GB Gold Kit GSM Unlocked 12MP Smartphone - Bid Now! Onl\u2026 https://t.co/McwjApt4OJ https://t.co/Y2nwrzEsbc
p41
aVNew Samsung Galaxy S7 Edge G935T 32GB Gold Kit GSM Unlocked 12MP Smartphone - Bid Now! Onl\u2026 https://t.co/u6czKBd7Yx https://t.co/90XFVeKrvX
p42
aV#cellular #deals https://t.co/9I5rDSYHfl For Samsung Galaxy S7 MyJacket PU Leather Flip Wallet Card Holder Case St\u2026 https://t.co/3wfqwWZHak
p43
aVDeals #2400 : https://t.co/x4tx5Qf6OX For Samsung Galaxy S7 MyJacket PU Leather Flip Wallet Card Holder Case Stand https://t.co/askNGrX4U3
p44
aVRT @shane_barker: Qmadix C Series Samsung Galaxy S7 edge Green Unboxing Review @Qmadix https://t.co/TGinngQYIu via @CHRISVOSS
p45
aVNew Samsung Galaxy S7 Edge G935T 32GB Gold Kit GSM Unlocked 12MP Smartphone - Bid Now! Onl\u2026 https://t.co/8V0dF6YpwC https://t.co/yXvrrr1m5P
p46
aVHOT DEALS : https://t.co/WPMAWrIiPh For Samsung Galaxy S7 MyJacket PU Leather Flip Wallet Card Holder Case Stand\u000a\u000a\u2026 https://t.co/GU4idXuDrr
p47
aVRT @DigitalTrends: Samsung #Galaxy S7 Edge vs. #Galaxy S6 Edge: Which edgy phone is the one for you? https://t.co/NyMDoa1oWU https://t.co/G\u2026
p48
aVRT @shane_barker: Qmadix C Series Samsung Galaxy S7 edge Green Unboxing Review @Qmadix https://t.co/TGinngQYIu via @CHRISVOSS
p49
aVRT @ziovo_: We've teamed up with @SlickWraps to give away a Samsung Galaxy S7 Edge! Enter here: https://t.co/Uv8mX9zxuM :) https://t.co/Tbp\u2026
p50
aVRT @SlickWraps: Galaxy S7 Edge International Giveaway Starts Now! \u000a\u000aContest Rules: https://t.co/LBQZHRtFQv https://t.co/hfDzjHJGSJ
p51
aVCell Phone Shop : https://t.co/lNiS9yygYR #629 For Samsung Galaxy S7 MyJacket PU Leather Flip Wallet Card Holder C\u2026 https://t.co/4RBmRrSoR8
p52
aVMobile Shop &gt;&gt; https://t.co/dOfLES0xao #301 For Samsung Galaxy S7 MyJacket PU Leather Flip Wallet Card Holder Case\u2026 https://t.co/OvdW1TT6VZ
p53
aVRT @shane_barker: Qmadix C Series Samsung Galaxy S7 edge Green Unboxing Review @Qmadix https://t.co/TGinngQYIu via @CHRISVOSS
p54
aVGreat Deals #424 : https://t.co/TwnKVtwe91 For Samsung Galaxy S7 MyJacket PU Leather Flip Wallet Card Holder Case \u2026 https://t.co/JKEvX09yx6
p55
aVEnter to win a brand new Samsung Galaxy S7 from GadgetGuide! Enter here: https://t.co/VwgoYFE0mx
p56
aV#CellPhone #Mobile #Deal : https://t.co/QXnXmF2sXO For Samsung Galaxy S7 Edge Hybrid Carbon Fiber Shockproof Slim \u2026 https://t.co/3DxVcE18LK
p57
aVRT @shane_barker: Qmadix C Series Samsung Galaxy S7 edge Green Unboxing Review @Qmadix https://t.co/TGinngQYIu via @CHRISVOSS
p58
aVCell Phones #Deals &gt;&gt; https://t.co/WXO6Lp1jRL #812  For Samsung Galaxy S7 Edge Hybrid Carbon Fiber Shockproof Slim\u2026 https://t.co/MsHyfPrntt
p59
aVHot Cell Phones #842 : https://t.co/UCuKeVrgxh For Samsung Galaxy S7 MyJacket PU Leather Flip Wallet Card Holder C\u2026 https://t.co/0kVeZx4RiR
p60
aVRT @shane_barker: Qmadix C Series Samsung Galaxy S7 edge Green Unboxing Review @Qmadix https://t.co/TGinngQYIu via @CHRISVOSS
p61
aVHot Deals &gt; https://t.co/AD01vCCIwM For Samsung Galaxy S7 MyJacket PU Leather Flip Wallet Card Holder Case Stand https://t.co/uyYb3Y0jvv
p62
aVSAMSUNG SM-R322 GEAR VR OCULUS For GALAXY NOTE 5 / S6 S7 PLUS EDGE - NEW!!! https://t.co/5F7cApGP4J https://t.co/EDY0fITd3b
p63
aVRT @Computerworld: LG G5 vs. Samsung Galaxy S7: Which one is right for you? @agreenbot  \u000ahttps://t.co/wSd3oJ57AV
p64
aVSamsung Galaxy S7 edge SM-G935T - 32GB - Silver Titanium (T-Mobile) Smartphone https://t.co/iC7dsffn9b https://t.co/0fues4Ejel
p65
aVRT @shane_barker: Qmadix C Series Samsung Galaxy S7 edge Green Unboxing Review @Qmadix https://t.co/TGinngQYIu via @CHRISVOSS
p66
aVEnter to win a free Galaxy S7 Edge! https://t.co/PtNmfXqMIQ https://t.co/VUTZLwxZ79
p67
aVGalaxy S7 Case, SUPCASE Unicorn Beetle Series Premium Hybrid Protective Clear Case for Samsung Galaxy S7 2016... - https://t.co/AVZextkX0m
p68
aVRT @shane_barker: Qmadix C Series Samsung Galaxy S7 edge Green Unboxing Review @Qmadix https://t.co/TGinngQYIu via @CHRISVOSS
p69
aVRT @shane_barker: Qmadix C Series Samsung Galaxy S7 edge Green Unboxing Review @Qmadix https://t.co/TGinngQYIu via @CHRISVOSS
p70
aVEnter to win a brand new Samsung Galaxy S7 from GadgetGuide! Enter here: https://t.co/yuSqqxbkax
p71
aVRT @shane_barker: Qmadix C Series Samsung Galaxy S7 edge Green Unboxing Review @Qmadix https://t.co/TGinngQYIu via @CHRISVOSS
p72
aVRT @shane_barker: Qmadix C Series Samsung Galaxy S7 edge Green Unboxing Review @Qmadix https://t.co/TGinngQYIu via @CHRISVOSS
p73
aVGalaxy S7 or iPhone SE? This is giving me a headache.
p74
aVRT @shane_barker: Qmadix C Series Samsung Galaxy S7 edge Green Unboxing Review @Qmadix https://t.co/TGinngQYIu via @CHRISVOSS
p75
aV@Samsung Setting up Galaxy S7 Horrible Support #SAMSUNGSUPPORTHELL
p76
aVRT @ziovo_: We've teamed up with @SlickWraps to give away a Samsung Galaxy S7 Edge! Enter here: https://t.co/Uv8mX9zxuM :) https://t.co/Tbp\u2026
p77
aVRT @SlickWraps: Galaxy S7 Edge International Giveaway Starts Now! \u000a\u000aContest Rules: https://t.co/LBQZHRtFQv https://t.co/hfDzjHJGSJ
p78
aVEnter to win a brand new Samsung Galaxy S7 from GadgetGuide! Enter here: https://t.co/ApqN7K7iD7
p79
aVRT @shane_barker: Qmadix C Series Samsung Galaxy S7 edge Green Unboxing Review @Qmadix https://t.co/TGinngQYIu via @CHRISVOSS
p80
aVRT @Computerworld: LG G5 vs. Samsung Galaxy S7: Which one is right for you? @agreenbot  \u000ahttps://t.co/wSd3oJ57AV
p81
aV@KCROYALSFAN_93 I just switched from the iPhone 6s plus to Samsung Galaxy S7 edge.  I like this Samsung better
p82
aVRT @shane_barker: Qmadix C Series Samsung Galaxy S7 edge Green Unboxing Review @Qmadix https://t.co/TGinngQYIu via @CHRISVOSS
p83
aVRT @shane_barker: Qmadix C Series Samsung Galaxy S7 edge Green Unboxing Review @Qmadix https://t.co/TGinngQYIu via @CHRISVOSS
p84
as.