(dp0
I0
(lp1
VRT @eilperin: As he mingles with Hollywood celebs &amp; donors in LA &amp; SF, @POTUS tells them not to be "complacent" in the '16 race https://t.c\u2026
p2
aV@elonmusk @moshesiegel @POTUS booyah! It's funny b/c NASA put reusing urine above reusing rockets! Hahaha
p3
aVRT @elonmusk: @POTUS Thanks on behalf of an amazing team at SpaceX!
p4
aV@POTUS @FLOTUS @HillaryClinton @realDonaldTrump I walk.
p5
aVRT @elonmusk: @POTUS Thanks on behalf of an amazing team at SpaceX!
p6
aVRT @elonmusk: @POTUS Thanks on behalf of an amazing team at SpaceX!
p7
aV@ChooseToBFree Guess comprehension isn't yours. Ryan has no desire to be POTUS now when he can redevelop the GOP platform/run on it in 2020.
p8
aVRT @Libertea2012: RT POTUS D-cand-hopeful Bernie Sanders accepted an invitation from the Pope to the Vatican. https://t.co/4aRS9OHKcI https\u2026
p9
aV@POTUS May the Force be with them!
p10
aV@KelliSmith15 n d general! I think he's senile! POTUS shuda beceehed his azz not 2  @SymoneDSanders @AlciniaH @jihettly @birdieglad @Wary12
p11
aVRT @Vets4Bernie: Perry: We can't afford to have another POTUS in the pocket of big money. https://t.co/amLqGKLilL #Vets4Bernie https://t.co\u2026
p12
aV@POTUS if @NASA is an innovator like you say why didn't you give them the project instead of a private contractor?
p13
aV@gerfingerpoken  Concur @WhiteHouse @POTUS knew which makes it even more egregious, but given Obama's disdain of military..
p14
aVTries to make publicly funded space travel sound relevant https://t.co/SenJWCcePf
p15
aVRT @Only4RM: What @fareedzakaria is too diplomatic &amp; classy to say is that America elected a Black POTUS and Republicans lost their gahtdam\u2026
p16
aV@glentickle @POTUS seriously. Please fund NASA respectability.
p17
aVHillbullies sounding shrill now? Reminds me when Bill was ' the first black POTUS' https://t.co/FmADI3oDEY
p18
aVRT @AikatsuAwards: With an overwhelming amount of votes...\u000aBiggest Hikari fan goes to...\u000a@POTUS! Congratulations! \U0001f498 https://t.co/3megNPiuR2
p19
aVRT @elonmusk: @POTUS Thanks on behalf of an amazing team at SpaceX!
p20
aV@POTUS @SpaceX Well said, Mr. President!
p21
aV.@POTUS congratulates @SpaceX after the successful landing of its rocket on a sea platform https://t.co/lozAfB2XmK https://t.co/nHy1e1i7bc
p22
aVRT @sacca: I'm hereby making an offer for @POTUS to come join @Lowercase. Of course, it includes a cowboy shirt stipend. https://t.co/eVsY6\u2026
p23
aVRT @AlyLovesMovies: When did greed, graft, corruption control who is our POTUS? If WE don't stop it now... civil war. #voteTrump2016 https:\u2026
p24
aVRT @elonmusk: @POTUS Thanks on behalf of an amazing team at SpaceX!
p25
aVRT @POTUS: Pretty incredible time lapse of the dark side of the moon passing Earth from @NASA. American ingenuity at work! http://t.co/JKep\u2026
p26
aVRT @elonmusk: @POTUS Thanks on behalf of an amazing team at SpaceX!
p27
aV@POTUS @FLOTUS @HillaryClinton @realDonaldTrump I am with are told to ridicule me. My hips were destroyed so people could laugh at the way
p28
aVRT @rockportbasset: Bubba thinks he's still POTUS!\u000a.@HillaryClinton .@billclinton https://t.co/lKQQHae8hr
p29
aV@jamieoliver You. Oh &amp; @POTUS . #bromance #celebrityx
p30
aV@LilFrenzyG it's bad ass man we did the giant flag for the nationals opening day yesterday, doing a bunch of ceremonies for the potus too
p31
aVDaddy @POTUS \u2764\ufe0f
p32
aVRT @elonmusk: @POTUS Thanks on behalf of an amazing team at SpaceX!
p33
aVRT @AlisonSpalding2: POTUS D-cand-hopeful Bernie Sanders accepted an invitation from the Pope to the Vatican.\u000a\u000ahttps://t.co/Itm1YSxwwx http\u2026
p34
aVRT @ArrghPaine: Bernie reacting badly because he was "irked " shows a level of irresponsible anger, that temperament won't fly as #POTUS
p35
aVRT @hippygirl37: Dear America, @realDonaldTrump doesn't have to run 4 President. he doesn't need the money. He is doing it for us! #Trump t\u2026
p36
aVRT @elonmusk: @POTUS Thanks on behalf of an amazing team at SpaceX!
p37
aVRT @Only4RM: What @fareedzakaria is too diplomatic &amp; classy to say is that America elected a Black POTUS and Republicans lost their gahtdam\u2026
p38
aV@veganvecoh ..So it should be with POTUS..Certainly not that way with B0gusB0 and his PC govt of appeasers and apologists..AMERICA FIRST..
p39
aVseems @POTUS @VP bad as Bush/Cheney when it comes to #whistleblowers. Real criminals have #secretservice protection https://t.co/HnBDcpIs1G
p40
aV@Pudingtane Everyone needs to listen to this video where Foxnews said Cruz was unable to run for the POTUS because he was Canadian
p41
aV@NRDC  @Medium So, @POTUS do it for our public trust
p42
aVRT @JPMajor: And the President just congratulated a rocket company for making the next step in launch innovation.  https://t.co/vU0rF3gwYX
p43
aVRT @elonmusk: @POTUS Thanks on behalf of an amazing team at SpaceX!
p44
aVRT @elonmusk: @POTUS Thanks on behalf of an amazing team at SpaceX!
p45
aVRT @elonmusk: @POTUS Thanks on behalf of an amazing team at SpaceX!
p46
aVFuck @SpaceX finally made it happen https://t.co/ubIsgMwxBE
p47
aVRT @elonmusk: @POTUS Thanks on behalf of an amazing team at SpaceX!
p48
aVRT @TiffanyWilson: .@POTUS obviously in SOMA right now. Helicopter practically crop dusting the Yerba Buena playground for past 30 min stra\u2026
p49
aV@POTUS #TFW @elonmusk was technically an illegal immigrant in the United States just for a little bit
p50
aVNot the Onion &gt; Under Nuclear Deal, Iran Can Have Nuclear Detonators https://t.co/Msu8Y8nezW  @TheIranDeal @POTUS @JohnKerry
p51
aVPanama Papers, Inflated Grades and a Message for the Next POTUS. https://t.co/AW39lers9M
p52
aVThanks for shuttering our @NASA space program @POTUS  https://t.co/4MDOgwbOPR
p53
aV@POTUS you are the best president, god bless you.
p54
aVRT @DaGodfather907: Cruz often runs with incorrect information.\u000a\u000aBad for a local dogcatcher, or a POTUS with a nuclear triad.\u000a\u000a#NeverCruz
p55
aVRT @BADGOP: Bernie Sanders on Wednesday: Hillary not qualified to be POTUS.\u000aBernie Sanders on Friday: Of course she's qualified.\u000a\u000aHillary f\u2026
p56
aV@JeanetteJing @HillaryClinton @POTUS not what #BernieSanders says.
p57
aVYes lets just go bythe Constituti100%  POTUS Nominate Full Senate advice n consent. Lets do it now fair,fair,fair! https://t.co/SxdNDwuLkb
p58
aV@POTUS @FLOTUS @HillaryClinton @realDonaldTrump send me to a mental institution. No one wants me to come to a party because the women
p59
aVSo, why don't you fund them appropriately then? \U0001f633 https://t.co/NEoh06PqU1
p60
aVRT @BADGOP: Bernie Sanders on Wednesday: Hillary not qualified to be POTUS.\u000aBernie Sanders on Friday: Of course she's qualified.\u000a\u000aHillary f\u2026
p61
aVRT @morrisonbrett: Thanks President Obama! https://t.co/neKORl6AAl
p62
aVRT @JoyAnnReid: Bottom line: we have to tackle mass incarceration as a society, from localities to states to the federal gov't. No POTUS ca\u2026
p63
aVYes, yes, yes! @POTUS @SpaceX @elonmusk https://t.co/RKWDbXRYAr
p64
aVBy GOP convention in Ju,l Trump wud hav peaked a brand marketing effort; even if he missed  POTUS nomination ! https://t.co/Gu5zRc4zk1
p65
aVRT @osnapitsal: @POTUS run for president again
p66
aV@CNN the whole thing is ridiculous.  both are qualified.  it's a matter of who would do the best job as POTUS.
p67
aVFast and furious, IRS, 2012 election fraud, #Benghazi , #Obamacare revisions by fiat, Iran Nuke deal, UN climate deal, So many Pardons POTUS
p68
aVRT @MarcellaPiperTe: @TannersDad @CBSNews @POTUS How 'bout $1 million bribe? Like Greg Poland offered @WomenInGovt 4 vax mandates https://t\u2026
p69
aV@Karoli No kidding. I would be without any insurance. I thank POTUS every day for making this happen.
p70
aVRT @glentickle: Now imagine what NASA could do with a real budget.  https://t.co/B8ffxSu6tc
p71
aVRT @TiffanyWilson: .@POTUS obviously in SOMA right now. Helicopter practically crop dusting the Yerba Buena playground for past 30 min stra\u2026
p72
aVRT @Libertea2012: RT POTUS D-cand-hopeful Bernie Sanders accepted an invitation from the Pope to the Vatican. https://t.co/4aRS9OHKcI https\u2026
p73
aVRT @elonmusk: @POTUS Thanks on behalf of an amazing team at SpaceX!
p74
aVWatch SpaceX finally nail rocket landing as Mission Control rejoices https://t.co/085FnlxLIG https://t.co/FbjTUAEWe5
p75
aVRT @POTUS: From my family to yours, Happy Easter, and we wish everyone celebrating a blessed and joyful day. https://t.co/fNvcihSmYB
p76
aVRT @BADGOP: Bernie Sanders on Wednesday: Hillary not qualified to be POTUS.\u000aBernie Sanders on Friday: Of course she's qualified.\u000a\u000aHillary f\u2026
p77
aVRT @votecamargo: #POTUS #BarackObama relents in fight over Fast and Furious documents - @POLITICO https://t.co/0kcOPl9poL
p78
aVRT @DarrellIssa: POTUS needs to explain why these docs couldn\u2019t been seen. Was he protecting the failed operation or the cover-up? https://\u2026
p79
aVRT @rose10052: Yep! America wake up! We need Marco Rubio as our POTUS! https://t.co/pfVKUNxGUb
p80
aVRT @AmericanIndian8: .@Potus  A 71 year old man with diabetes and an abdominal aortic aneurism is considered a security risk? Really? #Free\u2026
p81
aV@POTUS @FLOTUS @HillaryClinton @realDonaldTrump to leave because they become terrorizes as well. They have tried to assassinate me and
p82
aVINCREASE THE SPACE EXPLORATION BUDGET WHY DONT YOU THEN https://t.co/KVZPj73FnO
p83
aV@elonmusk @SpaceX @POTUS Congratulations!
p84
aVRT @TheMysteryLadie: #HillaryClinton is experienced; Over 40 years of corruption, cover-ups &amp; lies. We deserve better 4 #POTUS.  https://t.\u2026
p85
aVRT @JPMajor: And the President just congratulated a rocket company for making the next step in launch innovation.  https://t.co/vU0rF3gwYX
p86
aV@Photogbill222 Bible high, fly open. His choice, not ours. One more things, he is NOT ELIGIBLE to be potus-Lyin'Ted that it
p87
aV@elonmusk @SpaceX @POTUS give it a rest, Musk. Obama doesn't even know where rockets go when they are launched, other than up.
p88
aVRT @elonmusk: @POTUS Thanks on behalf of an amazing team at SpaceX!
p89
aV@starknightz @rescuetracker81 @realDonaldTrump Seriously!!!! Hands down the WORST POTUS IN HISTORY!! He trumps Carter by a long shot!
p90
aVRT @BADGOP: Bernie Sanders on Wednesday: Hillary not qualified to be POTUS.\u000aBernie Sanders on Friday: Of course she's qualified.\u000a\u000aHillary f\u2026
p91
aVRT @people: #HillarySoQualified trends\u2014then backfires\u2014as Sanders says Clinton 'not qualified' for POTUS https://t.co/zVIjKdF8r4 https://t.c\u2026
p92
aVRT @elonmusk: @POTUS Thanks on behalf of an amazing team at SpaceX!
p93
aV@POTUS shouldn't you be golfing \U0001f914
p94
aVThis is the one image of #malia today @ #sfo where the wind cooperated. #POTUS doesn't have to worry about hair in \u2026 https://t.co/G90M8ZRkuu
p95
aVRT @JPMajor: And the President just congratulated a rocket company for making the next step in launch innovation.  https://t.co/vU0rF3gwYX
p96
aVRT @BuzzFeedNews: President Obama congratulates SpaceX on today\u2019s successful landing \U0001f447\U0001f3fd https://t.co/JkrnxvMQD4
p97
aV@shay_tera @realDonaldTrump @BarackObama @POTUS Agree - love hearing the speakers tell it like it is, calling obama out!
p98
aVRT @SandyFoxWorld: This is why we need @BernieSanders for #POTUS #nofracking #cleanenergy @MarkRuffalo @dhlovelife lets do this\U0001f44d\U0001f1fa\U0001f1f8 https://\u2026
p99
aV@politico @POTUS @realDonaldTrump I'm pretty sure about that myself. #unelectable
p100
aVRT @sacca: I'm hereby making an offer for @POTUS to come join @Lowercase. Of course, it includes a cowboy shirt stipend. https://t.co/eVsY6\u2026
p101
as.