(dp0
I0
(lp1
V@JRussellMI @dcexaminer I'll take Reagan making an awkward very un-athletic throw any day over Obama doing the wave with Castro in Cuba
p2
aVRT @rulajebreal: President Obama deconstructs every element of Trump.... And does so brilliantly, as a comedy routine.  https://t.co/iEAGKT\u2026
p3
aVRT @iowahawkblog: Spoiler alert: I saw this movie before, and it does not end well\u000ahttps://t.co/Clt1VPEMkb
p4
aVRT @BIZPACReview: National Border Patrol Council confirms lawless intent of Obama Administration\u2019s\u2026 https://t.co/5uLEBqNrMN https://t.co/uu\u2026
p5
aVRT @TheTumblrPosts: just another reason to love Obama https://t.co/MZJwNqMGF6
p6
aVRT @BlissTabitha: Those I've met here just want imm enforcement. Obama's transformed my neighborhood into cross between ME &amp; Mexico. @RonPo\u2026
p7
aVRT @StanleyCohenLaw: After 2 terms of betrayal,  liberals still flock 2 Obama &amp; his nomination of a career prosecutor &amp; conservative judge\u2026
p8
aVRT @jacqui4peace: President Obama didn't campaign on anger, he spoke, he laughed a lot, he smiled all the time, oh how I miss those days of\u2026
p9
aVRT @politico: Senate GOP files Supreme Court brief against Obama\u2019s immigration actions https://t.co/WRgeKFOhC6 | AP Photo https://t.co/U7vw\u2026
p10
aV@NoOnePatriot Ha. Cruz is going to contribute to the unraveling of our country. He sided with BLM over Trump when it suited him.
p11
aV@greta @BarackObama @JohnKasich @FoxNews exactly!!  Obama never tried!!  He came in and said "we are doing my way"and Repubs said "no way"!
p12
aVSgt. Burk has had enough of the Pussy Obama. We Need a Real Man in our WH. Vote Trump https://t.co/W2OIyDnu7t
p13
aVRT @rolling_2: Tim Robbins just called the Obama Coalition a bunch of SHEEP\u000aI am so pissed right now
p14
aVWhite House gets a massive tech overhaul, but Obama still uses a BlackBerry https://t.co/FjqjT9H3N1
p15
aVIran Warns Obama and the United States to Back Off https://t.co/pQ9jihPHUa
p16
aVRT @iowahawkblog: Spoiler alert: I saw this movie before, and it does not end well\u000ahttps://t.co/Clt1VPEMkb
p17
aVAmid criticism, NATO hailed by Obama as 'cornerstone' of U.S. security policy: Doug G. WareWASHINGTON, April 4 (UPI) -- President Oba...
p18
aVRT @rolling_2: Tim Robbins just called the Obama Coalition a bunch of SHEEP\u000aI am so pissed right now
p19
aVRT @mashable: White House gets a massive tech overhaul, but Obama still uses a BlackBerry https://t.co/GN0BNk0OB0 https://t.co/mhPDBJTu7p
p20
aVAmid criticism, NATO hailed by Obama as 'cornerstone' of U.S. security policy: Doug G. WareWAS... https://t.co/qgkIZ2o1NW #TeamFollowBack
p21
aVRT @SenTedCruz: Proud to join 42 senators in fighting against Obama\u2019s unconstitutional executive amnesty https://t.co/5wdaPlxjX4
p22
aVRT @davidsirota: Before #PanamaPapers, Obama touted crackdown on Panama secrecy, then included this loophole https://t.co/18wPiqYbAv https:\u2026
p23
aVRT @TedNugent: obama is a Christian &amp; Im a gay vegetarian pirate
p24
aVRT @jjauthor: Barack Hussein Obama is just a tailored empty suit.No resume,accomplishments, experience, original ideas, past,&amp; full of comm\u2026
p25
aVRT @davidsirota: EXPOSED: @HillaryClinton &amp; Obama pushed Panama pact amid warnings it would help the rich hide cash https://t.co/cEblMMF6aU\u2026
p26
aVRT @davidsirota: Recall the push to stop the Clinton/Obama/Bush-backed Panama trade pact because Panama was a tax haven? Good times. https:\u2026
p27
aVWhite House gets a massive tech overhaul, but Obama still u... https://t.co/BdunSfjNvx | https://t.co/99RVMxuF6A https://t.co/mmmzAXbYeD
p28
aVRT @TheRightGirl585: .@realDonaldTrump Is The Next Barack Obama! #WakeUpAmerica #WIPrimary #TCOT #CCOT #DonTrusTrump #VOAV https://t.co/iSv\u2026
p29
aVRT @chickenbabby: Obama forgives takumi so WHY CANT ALL YOU HATERS https://t.co/wONxsrydhZ
p30
aVIm sick of Americans worried about Christian Genocide.The Muslim Obama doesn't care but, but if Christians had voted for Romney issue solved
p31
aVRT @chickenbabby: Obama forgives takumi so WHY CANT ALL YOU HATERS https://t.co/wONxsrydhZ
p32
aV@BarackObama Mr obama had many illusion of knowing his country but by a riding of the certificate is not I have lost
p33
aVRT @GrooveSDC: You think the country lost their mind when President Obama was elected? Imagine the reaction in the Deep South? Guess who fe\u2026
p34
aVRT @itknowingness: White House gets a massive tech overhaul, but Obama still uses a BlackBerry #IT https://t.co/lgohasmOof
p35
aVRT @Col_Connaughton: Breaking News Gun Grabs Have Officially, Legally Begun https://t.co/0c589aaRYT #gun #grab #NWO #newworldorder #obama
p36
aVRT @veganvecoh: Greta: Sgt. Tahmooressi was in Mexican prison for 214 days. Trump sent $$, while Obama wouldn\u2019t pick up a phone. https://t.\u2026
p37
aVA Bad Prez :The hate Obama has instilled, his lies, divisiveness,failed policies,hate for Israel,support rad Muslims, obamacare &amp; Iran deal.
p38
aVRT @NiggaCommentary: Obama rapping Jumpman \U0001f602 https://t.co/NPF0ORBYqj
p39
aVObama administration steps into Western Sahara minefield: The agency is close to awarding a $1 million grant f... https://t.co/rnbgzrcZEB
p40
aVHey remember when Carl Crawford was good? Obama still had black hair then, it was a magical time
p41
aV\U0001f4f7 latenightseth: Andrew Rannells had an uncomfortable realization while meeting President Obama at... https://t.co/FEzAyVlqHV
p42
aVRT @Mojahedineng: #Iran #News US Congress Probing Obama Admin misled on Nuclear Deal With Iran https://t.co/qx4Ol71z3d https://t.co/07aXEvN\u2026
p43
aVRT @imcrews: RUSH Caller: \u201cI voted for Obama twice, now I\u2019m switching parties to vote for Trump.\u201d In other words, his Liberal mentality has\u2026
p44
aVRT @AndrewCMcCarthy: Framers would've impeached Obama over #IranDeal; GOP must at least reaffirm sanctions - NOW. My weekend column @NRO ht\u2026
p45
aVRT @jjauthor: Is there a worse negotiator than Obama? @BillHemmer @AmbJohnBolton #IranDeal
p46
aVRT @jjconceptsinc: @NegusHamitic @Slate \u000aYet @Forbes ranks Putin more powerful than President Obama.\u000a\u000ahttps://t.co/L5axFOvD6a
p47
aVBREAKING: Judge Initiates Investigation Over Obama's Fraudulent Social Security Number https://t.co/JVs70PDZyq via @usheraldnews
p48
aVRT @TheMbuhari: Me - obama said I'm doing a good job\u000aPYO - sir, but the fuel scarcity.\u000aMe - is fuel scarcity now higher than obama? https:/\u2026
p49
aVRT @jjauthor: Answer this question: Why does Barack Obama resent American prosperity?\u201d
p50
aVRT @andersonDrLJA: #LiberalLogic For Sure!\u000aHow Far Would #Obama Go If Allowed?  Look How Far He's Gone Already! #TermLimits GodSent. https:\u2026
p51
aVRT @davidsirota: Before #PanamaPapers, Obama touted crackdown on Panama secrecy, then included this loophole https://t.co/18wPiqYbAv https:\u2026
p52
aVRT @i9erys: MUSLIM OF THE YEAR\u000aBarack Hussein Obama\u000a#ISLAM #jihad #ISIL #isis #Muslim #prayfor #America https://t.co/CtFj611Sh1
p53
aVRT @activistmode: .@gregpinelo @SaysSheToday Only other person I've seen that can withstand this kind of continual fire is #Obama.
p54
aVRT @davidsirota: EXPOSED: @HillaryClinton &amp; Obama pushed Panama pact amid warnings it would help the rich hide cash https://t.co/cEblMMF6aU\u2026
p55
aVRT @PamelaGeller: Navy: Huge Cache of Iranian Weapons Seized Bound for Jihadis Fighting  U.S.-Backed Coalition: Obama\u2019s legacy. ... https:/\u2026
p56
aVRT @zerohedge: In Grotesque Irony, Iran Warns Obama Not To Cross "Red Lines" https://t.co/NXQWEABprc
p57
aVRT @jog724: Don't you find it REALLY convenient that was the ONLY thing omitted by this "technical issue"?  Obama is a LIAR. https://t.co/x\u2026
p58
aVRT @BillPowers9: While Obama is continuing to mail it in, ISIS is infiltrating our country, the question is not if we will have another att\u2026
p59
aV"White House gets a massive tech overhaul, but Obama still uses a BlackBerry https://t.co/HOVuyTpJNA https://t.co/CGWCQejTcW"
p60
aVRT @BernadetteIL: Trump is so much like Obama it's scary. They're both narcissists. Unlike Obama, Trump doesn't have a plan. #cruzcrew http\u2026
p61
aVObama Welcomes Treasury Action to Discourage Corporate Inversions -White House: OBAMA WELCOMES TREASURY ACTION... https://t.co/2ztmS3NuVQ
p62
aVWhite House gets a massive tech overhaul, but Obama still uses a BlackBerry https://t.co/Ya3fCtf68A https://t.co/Msvl11k8xv
p63
aVObama Calls on Congress to take Action on Corporate Inversions -White House: OBAMA CALLS ON CONGRESS TO TAKE A... https://t.co/K0l6eyCyzu
p64
aVRT @SoPunnyy: What did Barack Obama say to Michelle when he proposed? \u000a\u000a"I don't wanna be Obama self"
p65
aVDo you people realize how calm Obama has been for 7 straight years? I can't be that calm for 72 hours
p66
aVRT @davidsirota: Before #PanamaPapers, Obama touted crackdown on Panama secrecy, then included this loophole https://t.co/18wPiqYbAv https:\u2026
p67
aVRT @joshismadd: #PanamaPapers: @POTUS, @HillaryClinton Pushed Trade Deal Amid Warnings It Would Make Tax Evasion Worse: https://t.co/rLikVV\u2026
p68
aV#Obama's #America - steal, kill and destroy - just like spiritual darkness! Traitor! Infiltrator! Worst POTUS Ever! https://t.co/obrrh9mBOW
p69
aVRT @BarackObama: "Give Judge Garland the respect he has earned. Give him a hearing. Give him an up-or-down vote." \u2014President Obama https://\u2026
p70
aVRT @FMAlchemist: #PanamaPapers: Obama, #HillaryClinton Pushed Trade Deal https://t.co/95unCVmMHR #p2 #p2p #p2p16 #Hillary2016 #ApologizeFor\u2026
p71
aV"I like Obama."\u000aIn other words, you hate the Constitution
p72
aVRT @dangjoydang: What did you do all day? \u000aMe: took a long nap did nothing and eat a muffin\u000aOthers: adventured, traveled the world, met Oba\u2026
p73
aV@greta @BarackObama @JohnKasich @FoxNews Obama did a lot of damage that short time he had a Dem congress
p74
aVRT @owillis: winning caucuses is not gaming the system. its winning delegates, aka the point. obama did it. https://t.co/HkAJ6pZcc6
p75
aVRT @davidsirota: EXPOSED: @HillaryClinton &amp; Obama pushed Panama pact amid warnings it would help the rich hide cash https://t.co/cEblMMF6aU\u2026
p76
aV@Hollowphoto you are misinformed.  You claimed Hillary won popular vote against Obama and then provided proof that you were wrong.
p77
aV.@realDonaldTrump Is The Next Barack Obama! #WakeUpAmerica #WIPrimary #TCOT #CCOT #DonTrusTrump #VOAV https://t.co/iSvbYHxZ5k
p78
aVWelcome RapeFugees ! #Germany #Sweden #Obama #Killary #LoseWithCruz #CruzSexScandal PERIOD. #MakeAmericaGreatAgain  https://t.co/fxYicY1JEk
p79
aVRT @veganvecoh: Greta: Sgt. Tahmooressi was in Mexican prison for 214 days. Trump sent $$, while Obama wouldn\u2019t pick up a phone. https://t.\u2026
p80
aVimagine all the funny shit and irl cameos Obama is gonna do once he's out of office
p81
aVVote counting company in UK with ties to Soros, One of Obama's financial backers &amp; Obama is helping Cameron. #VOTEGO https://t.co/vsqZuirOdT
p82
aVRT @chickenbabby: Obama forgives takumi so WHY CANT ALL YOU HATERS https://t.co/wONxsrydhZ
p83
aVmashable: White House gets a massive tech overhaul, but Obama still uses a BlackBerry https://t.co/qaSGlvzmFP https://t.co/RiFzqffdpY
p84
aVRT @DRUDGE_REPORT: Intel Analysts Say Forced Out for 'Telling Truth' About Obama ISIS War... https://t.co/4ptCcyuIZz
p85
aVAs the #climate changes, risks to human #health will accelerate, #WhiteHouse warns https://t.co/VEMOWAK7zl https://t.co/G04IGDnMmy
p86
aVRT @cool_as_heck: The stats don't lie, Obama's second term has been a complete nightmare. https://t.co/LFMIkxSlGQ
p87
aVRT @chickenbabby: Obama forgives takumi so WHY CANT ALL YOU HATERS https://t.co/wONxsrydhZ
p88
aV#Unfortunately #Obama hasn't learned how to identify the  #enemy. \u000aRT @blackhawkinc: #Iran Should (cont) https://t.co/iGOjoEzEbT
p89
aVRT @SandyEgoCali: After opening w/more #Trumpsplaining, 1st call Rush took today was from a"lifelong Dem"who voted 4 Obama twice. smh\u000ahttps\u2026
p90
aVRT @CommonSense1212: @obamascrewingus Obama=world head muslim terrorist! https://t.co/ViMOTVo67V
p91
aVRT @PamelaGeller: Navy: Huge Cache of Iranian Weapons Seized Bound for Jihadis Fighting  U.S.-Backed Coalition: Obama\u2019s legacy. ... https:/\u2026
p92
aV@davidaxelrod @realDonaldTrump As Obama's term(s).
p93
aVRT @davidsirota: Before #PanamaPapers, Obama touted crackdown on Panama secrecy, then included this loophole https://t.co/18wPiqYbAv https:\u2026
p94
aVRT @michellemalkin: Parents, keep this #stopfeded scorecard handy - how Senators voted on Obama EdSec Common Core shill John King==&gt; https:\u2026
p95
aVBy David Shepardson WASHINGTON (Reuters) - The Obama administration on Monday unveiled new labels for broadband... https://t.co/SjoQ7cElIv
p96
aVWhite House gets a massive tech overhaul, but Obama still uses a BlackBerry https://t.co/GN0BNk0OB0 https://t.co/mhPDBJTu7p
p97
aVRT @SusanMondie: @loudobbsnews another Congressional investigation this 1 Obama on Iran by time it's done Iran will have conquered world -\u2026
p98
aVUnaccountable Power: Drone Warfare Under the Obama Administration https://t.co/aHsqOvc8TP
p99
aVMichelle Obama to speak at Jackson State  #news
p100
aVPanama Papers: Obama, Clinton Pushed Trade Deal Amid Warnings It Would Make Money Laundering, Tax Evasion Worse https://t.co/029Lbbtc1F
p101
as.