(dp0
I0
(lp1
VI added a video to a @YouTube playlist https://t.co/Cbkk9M1VO0 Unboxing of Lenovo Vibe k4 Note! April 2016
p2
aVI added a video to a @YouTube playlist https://t.co/oxwE8wGeRg Pros &amp; Cons Of Android M 6.0 (Marshmallow) On Lenovo Vibe K4 Note
p3
aV#Deals #Offers Lenovo Vibe K4 Note For Rs 11,999 https://t.co/yRAOyTaKrC Buy Now https://t.co/vfdHXsseFG
p4
aVShould You Update Your Lenovo K4 Vibe Note To Android M 6.0 Marshmallow ? Many People Are In Co.. https://t.co/c0UZzIVvfr #android
p5
aVAmazing Phone #LenovoVibe #LenovoK4 #LenovoNote\u000ahttps://t.co/9TE0fidBga
p6
aVLenovo Vibe K4 Note Full Review and Unboxing: https://t.co/G5f1AwLKYk via @YouTube
p7
aVRT @LenovoMobilePH: Theater experience in one amazing smartphone. Get your Lenovo Vibe K4 Note now for only Php 10,699! https://t.co/EKu3fV\u2026
p8
as.