(dp0
I0
(lp1
VRT BloombergTV: Demand for iPhone SE is higher than expected, Apple CFO tells emilychangtv https://t.co/CyY3DfppgK \u2026
p2
aVRT @jandawson: Big dip in iPhone ASPs, and that\u2019s before the iPhone SE went on sale\u2026 https://t.co/idAsGgs1PA
p3
aVbusiness: RT BloombergTV: Demand for iPhone SE is higher than expected, Apple CFO tells emilychangtv \u2026 https://t.co/LRTDFbjj83
p4
aVRT @jandawson: Big dip in iPhone ASPs, and that\u2019s before the iPhone SE went on sale\u2026 https://t.co/idAsGgs1PA
p5
aVBrand NEW Apple iPhone SE Rose Gold 16GB AT&amp;T 1 Year Warranty https://t.co/hjiiMcBTz6 https://t.co/P4qM9SEYTP
p6
aVIphone SE caused it all  https://t.co/jd7uvdDgQR
p7
aVApple iPhone SE (Latest Model) - 16GB - Rose Gold (Verizon) Smartphone  https://t.co/eGtumfh6bh https://t.co/kLI1zjOOCl
p8
aV@Cricketnation iPhone SE compatibility with Cricket service ?
p9
aVPoll results - $AAPL\u000aThe \u2018lower\u2019 votes were right! Buy yourself an iPhone SE \u2026 https://t.co/sAKyHtyRVg
p10
aVRT @BloombergTV: Demand for iPhone SE is higher than expected, Apple CFO tells @emilychangtv https://t.co/H89WE9USD2 https://t.co/RInbe3mL1v
p11
aVRT @BloombergTV: Demand for iPhone SE is higher than expected, Apple CFO tells @emilychangtv https://t.co/H89WE9USD2 https://t.co/RInbe3mL1v
p12
aVSoul searching with the iPhone SE: an Android lover's experience: An Android-lovers first\u2026 https://t.co/8ToXX487lk
p13
aVBig dip in iPhone ASPs, and that\u2019s before the iPhone SE went on sale\u2026 https://t.co/idAsGgs1PA
p14
aVRT @BloombergTV: Demand for iPhone SE is higher than expected, Apple CFO tells @emilychangtv https://t.co/H89WE9USD2 https://t.co/RInbe3mL1v
p15
aVAn amazing run. The iPhone SE emerged just as they captured the last of the high end potential. https://t.co/EwVJ0MaIz4
p16
aVRT @jacknhacktech: JackNhack Presents THE BIG SMARTPHONE GIVEAWAY!!!!! - GALAXY S7,S7 EDGE &amp; IPHONE SE - INTERNATIONAL\u000ahttps://t.co/8eBjvr2\u2026
p17
aVOEM Original Wall Charger+Lightning Cable For Apple iPhone 5/5s/SE/5c/6/6s/Plus - Bid Now!\u2026 https://t.co/eiJ7eSvOzs https://t.co/n14zZFIuYm
p18
aVOEM Original Wall Charger+Lightning Cable For Apple iPhone 5/5s/SE/5c/6/6s/Plus - Bid Now!\u2026 https://t.co/SYwXjcGN1f https://t.co/HMlwwTgeLY
p19
aVOEM Original Wall Charger+Lightning Cable For Apple iPhone 5/5s/SE/5c/6/6s/Plus - Bid Now!\u2026 https://t.co/OAUBSyvHdu https://t.co/Qa7J5OyzGX
p20
aVOEM Original Wall Charger+Lightning Cable For Apple iPhone 5/5s/SE/5c/6/6s/Plus - Bid Now!\u2026 https://t.co/F05sO4TB2J https://t.co/eLcJJcBqO6
p21
aV$AAPL SUCKS AND IS GOING TO $88 but I do love my iPhone SE lo lolol SHIT STOCK.
p22
aVBEST DEALS : https://t.co/rmRh31FiFx #7543 For iPhone SE / 5S / 5 Wallet Case Cover Wrist Strap Credit Card ID Poc\u2026 https://t.co/ASMJioV77V
p23
aVOEM Original Wall Charger+Lightning Cable For Apple iPhone 5/5s/SE/5c/6/6s/Plus - Bid Now!\u2026 https://t.co/UdjaJkNSKL https://t.co/g9jO6HWwHd
p24
aVOEM Original Wall Charger+Lightning Cable For Apple iPhone 5/5s/SE/5c/6/6s/Plus - Bid Now!\u2026 https://t.co/gXttIvcIN9 https://t.co/8Z8clZ129h
p25
aVOEM Original Wall Charger+Lightning Cable For Apple iPhone 5/5s/SE/5c/6/6s/Plus - Bid Now!\u2026 https://t.co/uJjlJSjB7W https://t.co/BN2r7Kniv5
p26
aVbusiness: RT BloombergTV: Demand for iPhone SE is higher than expected, Apple CFO tells emilychangtv \u2026 https://t.co/EQT7hrhXoF
p27
aVOEM Original Wall Charger+Lightning Cable For Apple iPhone 5/5s/SE/5c/6/6s/Plus - Bid Now!\u2026 https://t.co/pG3VIdgAyS https://t.co/LwQeKXrJDf
p28
aVOEM Original Wall Charger+Lightning Cable For Apple iPhone 5/5s/SE/5c/6/6s/Plus - Bid Now!\u2026 https://t.co/4Fo279v73f https://t.co/pTmBZwxTAQ
p29
aVOEM Original Wall Charger+Lightning Cable For Apple iPhone 5/5s/SE/5c/6/6s/Plus - Bid Now!\u2026 https://t.co/ElOWFW6mXY https://t.co/z0c0RbfODY
p30
aVI want to win an iPhone SE from @DontHateTheGeek and @NFMTweets #DHTGiPhoneSE https://t.co/Q11nwQ5cKT
p31
aVOEM Original Wall Charger+Lightning Cable For Apple iPhone 5/5s/SE/5c/6/6s/Plus - Bid Now!\u2026 https://t.co/5vgRaOb3P3 https://t.co/YAzlTuFRGj
p32
aVPIERRE CARDIN Brown Genuine Leather Cover Hard Back Case For iPhone 5 SE 5/5s - Bid Now! O\u2026 https://t.co/FuJtc75Ayo https://t.co/kSpQCJIKTx
p33
aVBling Fashion Swan Transparent Hard Fitted Case Cover For iPhone 5 5s SE - Bid Now! Only $\u2026 https://t.co/G3N2lX7Ti0 https://t.co/237WftXVFQ
p34
aVOEM Original Wall Charger+Lightning Cable For Apple iPhone 5/5s/SE/5c/6/6s/Plus - Bid Now!\u2026 https://t.co/OoB1keLHIz https://t.co/eo8EMjxhuE
p35
aVPIERRE CARDIN Brown Genuine Leather Cover Hard Back Case For iPhone 5 SE 5/5s - Bid Now! O\u2026 https://t.co/b15qQZCSOM https://t.co/qRS5NXepiY
p36
aVLots of puts and takes on Apple's results. China 26%/Mac 12%/iPhone 16%/iPad 19% decline troubling. SE constraint, switchers positive. $APPL
p37
aV#business #Bloomberg Demand for iPhone SE is higher than expected, Apple CFO tells @emilychangtv https://t.co/XBxm1C5wwv....  @FollowNewsNow
p38
aVBling Fashion Swan Transparent Hard Fitted Case Cover For iPhone 5 5s SE - Bid Now! Only $\u2026 https://t.co/go7w30Zwsm https://t.co/bhto1PnmvZ
p39
aVPIERRE CARDIN Brown Genuine Leather Cover Hard Back Case For iPhone 5 SE 5/5s - Bid Now! O\u2026 https://t.co/nhFkBdzwfq https://t.co/KU4LqWLQpa
p40
aVBling Fashion Swan Transparent Hard Fitted Case Cover For iPhone 5 5s SE - Bid Now! Only $\u2026 https://t.co/IZpnIXAY2i https://t.co/uiaOtucdtU
p41
aVbusiness: RT BloombergTV: Demand for iPhone SE is higher than expected, Apple CFO tells emilychangtv \u2026 https://t.co/lUcP8MH8ZT
p42
aVRT @BloombergTV: Demand for iPhone SE is higher than expected, Apple CFO tells @emilychangtv https://t.co/H89WE9USD2 https://t.co/RInbe3mL1v
p43
aVAfter a week of use I am very impressed with the battery life of the iPhone SE, longer than I was getting on the 6S.
p44
aVRT @BloombergTV: Demand for iPhone SE is higher than expected, Apple CFO tells @emilychangtv https://t.co/H89WE9USD2 https://t.co/RInbe3mL1v
p45
aVOEM Original Wall Charger+Lightning Cable For Apple iPhone 5/5s/SE/5c/6/6s/Plus - Bid Now!\u2026 https://t.co/pIVFdjbGQf https://t.co/ELGvU0J9nj
p46
aV@thurrott cos iPhone SE was a pile of tut
p47
aVbusiness: RT BloombergTV: Demand for iPhone SE is higher than expected, Apple CFO tells emilychangtv \u2026 https://t.co/3kZWeqpogH
p48
aVPIERRE CARDIN Brown Genuine Leather Cover Hard Back Case For iPhone 5 SE 5/5s - Bid Now! O\u2026 https://t.co/tYt3jDcjnJ https://t.co/oUy9rQHIfN
p49
aVBling Fashion Swan Transparent Hard Fitted Case Cover For iPhone 5 5s SE - Bid Now! Only $\u2026 https://t.co/YCcF8VGIyu https://t.co/WacXxOGqty
p50
aVRT @BloombergTV: Demand for iPhone SE is higher than expected, Apple CFO tells @emilychangtv https://t.co/H89WE9USD2 https://t.co/RInbe3mL1v
p51
aVOEM Original Wall Charger+Lightning Cable For Apple iPhone 5/5s/SE/5c/6/6s/Plus - Bid Now!\u2026 https://t.co/WgTQTl2I02 https://t.co/IbGS8p3IKR
p52
aVbusiness: RT BloombergTV: Demand for iPhone SE is higher than expected, Apple CFO tells emilychangtv \u2026 https://t.co/RlBn2QTpLl
p53
aVPIERRE CARDIN Brown Genuine Leather Cover Hard Back Case For iPhone 5 SE 5/5s - Bid Now! O\u2026 https://t.co/KfLXEyEqcQ https://t.co/SHCoYOCuKY
p54
aVPIERRE CARDIN Brown Genuine Leather Cover Hard Back Case For iPhone 5 SE 5/5s - Bid Now! O\u2026 https://t.co/p9H3FVbFt9 https://t.co/CPxNCsfT6F
p55
aVBling Fashion Swan Transparent Hard Fitted Case Cover For iPhone 5 5s SE - Bid Now! Only $\u2026 https://t.co/akheza5e6L https://t.co/0S47TphbAU
p56
aVBling Fashion Swan Transparent Hard Fitted Case Cover For iPhone 5 5s SE - Bid Now! Only $\u2026 https://t.co/zrw0fti6rt https://t.co/E6EEsgIl0G
p57
aVPIERRE CARDIN Brown Genuine Leather Cover Hard Back Case For iPhone 5 SE 5/5s - Bid Now! O\u2026 https://t.co/tYt3jDcjnJ https://t.co/5GbVhoLix6
p58
aVBling Fashion Swan Transparent Hard Fitted Case Cover For iPhone 5 5s SE - Bid Now! Only $\u2026 https://t.co/YCcF8VGIyu https://t.co/XAI2lmdWU5
p59
aVOEM Original Wall Charger+Lightning Cable For Apple iPhone 5/5s/SE/5c/6/6s/Plus - Bid Now!\u2026 https://t.co/bzl4uGVHoR https://t.co/TLOpp7IdwX
p60
aVI want to win an iPhone SE from @DontHateTheGeek and @NFMTweets #DHTGiPhoneSE https://t.co/CItx96bRCS
p61
aVRightAwayFunds Shared: business: RT BloombergTV: Demand for iPhone SE is higher than expected, Apple CFO tells emi\u2026 https://t.co/QHvhnRbM2A
p62
aVOEM Original Wall Charger+Lightning Cable For Apple iPhone 5/5s/SE/5c/6/6s/Plus - Bid Now!\u2026 https://t.co/ffYKVAkedE https://t.co/W4fHjI5W6X
p63
aVPIERRE CARDIN Brown Genuine Leather Cover Hard Back Case For iPhone 5 SE 5/5s - Bid Now! O\u2026 https://t.co/chhJN4XZv9 https://t.co/fbBXRniRdV
p64
aVBling Fashion Swan Transparent Hard Fitted Case Cover For iPhone 5 5s SE - Bid Now! Only $\u2026 https://t.co/gmI8rMQA55 https://t.co/CCrINCv1hb
p65
aVPIERRE CARDIN Brown Genuine Leather Cover Hard Back Case For iPhone 5 SE 5/5s - Bid Now! O\u2026 https://t.co/6WGtASNiXH https://t.co/Xye4hbLkVR
p66
aVOEM Original Wall Charger+Lightning Cable For Apple iPhone 5/5s/SE/5c/6/6s/Plus - Bid Now!\u2026 https://t.co/YbI8xnRLmq https://t.co/wdFPX5WHaM
p67
aVBling Fashion Swan Transparent Hard Fitted Case Cover For iPhone 5 5s SE - Bid Now! Only $\u2026 https://t.co/DGgaDqadg7 https://t.co/6ImwqsEdsk
p68
aVPIERRE CARDIN Brown Genuine Leather Cover Hard Back Case For iPhone 5 SE 5/5s - Bid Now! O\u2026 https://t.co/6pRvBFbwzm https://t.co/ZU8sfjZrm7
p69
aVBling Fashion Swan Transparent Hard Fitted Case Cover For iPhone 5 5s SE - Bid Now! Only $\u2026 https://t.co/vAupwg5SNp https://t.co/1J09O0PI4i
p70
aVRT @BloombergTV: Demand for iPhone SE is higher than expected, Apple CFO tells @emilychangtv https://t.co/H89WE9USD2 https://t.co/RInbe3mL1v
p71
aVPIERRE CARDIN Brown Genuine Leather Cover Hard Back Case For iPhone 5 SE 5/5s - Bid Now! O\u2026 https://t.co/fQJc38seMF https://t.co/Ss5kj7VHAA
p72
aVBling Fashion Swan Transparent Hard Fitted Case Cover For iPhone 5 5s SE - Bid Now! Only $\u2026 https://t.co/OcKEfD9UbN https://t.co/ece1uXzxSK
p73
aViPhone SE my ass https://t.co/aAAltFs1sV
p74
aVPIERRE CARDIN Brown Genuine Leather Cover Hard Back Case For iPhone 5 SE 5/5s - Bid Now! O\u2026 https://t.co/chhJN4XZv9 https://t.co/6h5Qfvmq55
p75
aVPIERRE CARDIN Brown Genuine Leather Cover Hard Back Case For iPhone 5 SE 5/5s - Bid Now! O\u2026 https://t.co/aPeeWAdj7c https://t.co/ne4YkLt1kX
p76
aVBling Fashion Swan Transparent Hard Fitted Case Cover For iPhone 5 5s SE - Bid Now! Only $\u2026 https://t.co/4vVa3BGX9V https://t.co/yuFOQm70Uj
p77
aVBling Fashion Swan Transparent Hard Fitted Case Cover For iPhone 5 5s SE - Bid Now! Only $\u2026 https://t.co/gmI8rMQA55 https://t.co/l2pUhL2bh6
p78
aVPIERRE CARDIN Brown Genuine Leather Cover Hard Back Case For iPhone 5 SE 5/5s - Bid Now! O\u2026 https://t.co/mpN9EclLbX https://t.co/1qxWj9OXdH
p79
aVPIERRE CARDIN Brown Genuine Leather Cover Hard Back Case For iPhone 5 SE 5/5s - Bid Now! O\u2026 https://t.co/llNHF3A0pQ https://t.co/XR9pdlAX6P
p80
aVBling Fashion Swan Transparent Hard Fitted Case Cover For iPhone 5 5s SE - Bid Now! Only $\u2026 https://t.co/hinaCeY2h2 https://t.co/vEw6uDJEWE
p81
aVBling Fashion Swan Transparent Hard Fitted Case Cover For iPhone 5 5s SE - Bid Now! Only $\u2026 https://t.co/H9p37LyoDB https://t.co/LAe1oON5de
p82
aVI want to win an iPhone SE from @DontHateTheGeek and @NFMTweets #DHTGiPhoneSE https://t.co/mMzdV49Zl5
p83
aVRT @BloombergTV: Demand for iPhone SE is higher than expected, Apple CFO tells @emilychangtv https://t.co/H89WE9USD2 https://t.co/RInbe3mL1v
p84
aVRT @BloombergTV: Demand for iPhone SE is higher than expected, Apple CFO tells @emilychangtv https://t.co/H89WE9USD2 https://t.co/RInbe3mL1v
p85
aVRT @BloombergTV: Demand for iPhone SE is higher than expected, Apple CFO tells @emilychangtv https://t.co/H89WE9USD2 https://t.co/RInbe3mL1v
p86
aVDemand for iPhone SE is higher than expected, Apple CFO tells @emilychangtv https://t.co/H89WE9USD2 https://t.co/RInbe3mL1v
p87
aVChic Chevrons Pattern - Hot Pink iPhone SE/5/5s Case: \u000a\u000a           ... https://t.co/04h44QdZYP #gifts #shopping
p88
aVPlease help me win an iPhone SE from https://t.co/HmsBgFWqVC! https://t.co/VQJN93w7kH
p89
aViPhone SE Release Dates by Country: Orders Start March 24, March 29, and Early\u2026 https://t.co/NDgjFtFYWh #TeleTech
p90
as.