(dp0
I0
(lp1
VYellow - Rubberized Case Matte Shell For Macbook Air 13.3 A1466 &amp; A1369 13-i https://t.co/JQh1xxwdOp Ebay Bid Last Second \u21baRT, F
p2
aVThe MacBook line is trash and unnecessary and will never take off like the air and pro line  https://t.co/msqnPoKQXU
p3
aVWoot! Got some fly stickers from @elitemobb for $INFX. Affixed to the iPhone, iPad, and MacBook Air. \u2764\ufe0f https://t.co/5tiM4IC2p4
p4
aVDenver Broncos Horse Apple Macbook Decal 13" 15" 17" Vinyl Air Pro Sticker https://t.co/xUTTjJCPhA https://t.co/w9IGtsqV9Y
p5
aVTransformer Auto Bot Decal Sticker Skin for Apple MacBook Pro Air Mac 13" 15\u201d 17 https://t.co/CU571JzGtx https://t.co/sofVAK79eK
p6
aVSasuke V2 Vinyl Skin for MacBook Pro Retina Air 13" 15" 17\u201d Decal Sticker https://t.co/IeUjC15nTE https://t.co/TBjWLfnGW2
p7
aV5200mAh Battery for A1375 MacBook Air 11" A1370 Late 2010 MC505LL/A+Screwdrivers https://t.co/0HNJPB2GNp https://t.co/jO5TehFW3e
p8
aVRT @alltwerknation: Click to join our MacBook Air giveaway contest! https://t.co/XrIEtmkgkt
p9
aV5200mAh Battery for A1375 MacBook Air 11" A1370 Late 2010 MC505LL/A+Screwdrivers https://t.co/DXp7JZA7p9 https://t.co/GOiGWHzoHJ
p10
aVApple MacBook Air A1466 13.3" Laptop (June, 2013) - Customized 256 GB SSD w/ Box /$500.00 with 4m left https://t.co/EvRh4Dit9h #apple
p11
aVUU1: GENUINE Apple A1374 45W Power Adapter for MacBook Air https://t.co/lR32cUdIVm https://t.co/llJDEnTAPp
p12
aVUU1: Original APPLE MacBook Air 45W Power Adapter Charger A1436 https://t.co/rAkr9T52Wb https://t.co/2eAXqGQpqH
p13
aVOpen-Box: Speck - SeeThru Case for 13" Apple MacBook Air - Cobalt Blue https://t.co/Y3BDbAcT9W https://t.co/8FlhXUrIpn
p14
aVMacbook Air + Kate Spade Giveaway | Viva La Jewels https://t.co/GUXEBpvHFE
p15
aVMACBOOK AIR ;.;
p16
aVKinmac New Bohemian Waterproof Laptop Sleeve Case Bag 13.3 Inch For Macbook AIR https://t.co/vV1pwO8wPX https://t.co/AQhna0dXve
p17
aVMacbook Air + Kate Spade Giveaway | Viva La Jewels  https://t.co/2sBjqpuDNx https://t.co/ybVHBjVDoP
p18
aVMacbook Air + Kate Spade Giveaway | Viva La Jewels  https://t.co/vKE2Q5s6Ob https://t.co/2I0A3rLNLP
p19
aVMacbook Air + Kate Spade Giveaway | Viva La Jewels  https://t.co/2sBjqpuDNx
p20
aVClick on words below to enter https://t.co/huYmdVyliQ
p21
aVMacBook Air Sleeve | spin-me-round | https://t.co/6fWfqf7XPu | #MacBookAirSleeve #MacBookAirCover #MacBookAirLeather https://t.co/11TMi95YT8
p22
aV@MKBHD Apple presents the new macbook air as thin &amp; light as a book available.. In space grey haha XD https://t.co/tcrODKxsyb
p23
aVKuzy - Hebrew Language Keyboard Cover Silicone Skin for MacBook Pro 13" ... https://t.co/IWh8YAPbNu\u000a#gadget #gadgets https://t.co/JZYcomgZNg
p24
aVApple MacBook Air A1370 11.6" Laptop - MC505LL/A with Original Packaging https://t.co/owelJ4hQcH https://t.co/457yBKGmHs
p25
aVMacBook Air Leather Sleeve | BIG PAPAYA | https://t.co/CFKubfhAwh | #MacBookAIR #MacBookAIRSleeve #MacBookAIRCase https://t.co/Oh8gmr6243
p26
aVMacBook Pro/Air Sleeves / Cover Shop Etsy | https://t.co/kGzyLpgq4n | #MacBookProSleeve #MacBookProCover #MacBookProLEather #MacBookAIR
p27
aVApple MacBook Air A1466 13.3" Laptop - MD232LL/A (June, 2012) 2.0 i7, 4gb, 256gb https://t.co/P466yzf4f0 https://t.co/TVy3WzwbiZ
p28
aVPerfect 2015 13\u201d Macbook Air\u2014under warranty\u2014Office &amp; Photoshop https://t.co/Yq0oF9ZILQ https://t.co/2TETkgvmRZ
p29
aVMacbook Air 11 Great Condition https://t.co/ezCk9OC4iD Last Second OutBid \u21baRT, Favorite, Share
p30
aVLearn to code for free with @Devslope https://t.co/4j1wavIyv4 https://t.co/Zx9RmYWNrY
p31
aVBack this Kickstarter and you could win a Macbook Air https://t.co/4j1wavIyv4
p32
aVHey friends, does anyone have a MacBook Air charger that I can use???
p33
aVCheck out this Deal : https://t.co/cMfUlfTbrf #0169 \u2606 Apple Macbook Air 13" A1466 Palmrest, Touchpad, &amp; Keyboard #\u2026 https://t.co/JvNimkjLMA
p34
aVBLACK - Neoprene Soft Sleeve Case for 13-inch Laptop &amp; MacBook Pro &amp; Air 13.3\u201d https://t.co/JBbtnlupqu https://t.co/KVLmfx2YTc
p35
aVDeals &gt;&gt; https://t.co/qeBsFTuL2z #9292 #6439 \u2606 Apple Macbook Air 13" A1466 Palmrest, Touchpad, &amp; Keyboard # 069-93\u2026 https://t.co/oiiztS1yu6
p36
aVMacBook Air i7 | https://t.co/ggTDjRLxZA #dannychoo #mac
p37
aV@knifepunch I doubt my MacBook Air can run that
p38
aVMacBook Air Sleeve Shop: https://t.co/qJRLdDhNNP | #MacBookAir #MacBookAirSleeve #MacBookAirCase #MacBookAirCover #MacBookAirPortfolio
p39
aVMacBook Air Leather Sleeve Mr. WATZ | https://t.co/ycBfxHSDvi | #MacBook #MacBookAir #MacBookRetina #MacBookSleeve\u2026 https://t.co/87CNj39QgB
p40
aVApple MacBook Air A1465 11.6" Laptop (Mid 2012) 64gb - Bid Now! Only $325.0 https://t.co/tsgKgOzhBI https://t.co/2XXNRRc2s4
p41
aVApple Macbook Air 12" Retina Gold   BRAND NEW SEALED - Bid Now! Only $1146.34 https://t.co/V9X77FU7XK https://t.co/67GqH28zpa
p42
aVApple MacBook Air A1465 11.6" Laptop (Mid 2012) 64gb - Bid Now! Only $325.0 https://t.co/gPemtpUymp https://t.co/r6Jrsw6qrs
p43
aVApple Macbook Air 12" Retina Gold   BRAND NEW SEALED - Bid Now! Only $1146.34 https://t.co/2zXlfWIgW9 https://t.co/CdxYhxLYGM
p44
aVApple MacBook Air A1465 11.6" Laptop (Mid 2012) 64gb - Bid Now! Only $325.0 https://t.co/zIE6Bmu6tJ https://t.co/mfarge6y1D
p45
aVApple MacBook Air A1465 11.6" Laptop (Mid 2012) 64gb - Bid Now! Only $325.0 https://t.co/stTCi1R8xQ https://t.co/Ljul8yxSWz
p46
aVApple Macbook Air 12" Retina Gold   BRAND NEW SEALED - Bid Now! Only $1146.34 https://t.co/R1ru9dkmlJ https://t.co/Gy9CJDuJVz
p47
aVApple Macbook Air 12" Retina Gold   BRAND NEW SEALED - Bid Now! Only $1146.34 https://t.co/NPEz6bCcKz https://t.co/aUX2iazO5v
p48
aVApple MacBook Air A1465 11.6" Laptop (Mid 2012) 64gb - Bid Now! Only $325.0 https://t.co/H8a582ICjg https://t.co/AagIQVmRT8
p49
aVApple Macbook Air 12" Retina Gold   BRAND NEW SEALED - Bid Now! Only $1146.34 https://t.co/x7tttFo5eM https://t.co/u8rvCi0klL
p50
aVApple MacBook Air A1465 11.6" Laptop (Mid 2012) 64gb - Bid Now! Only $325.0 https://t.co/5dCogeft35 https://t.co/rqtB4CQtXb
p51
aVApple Macbook Air 12" Retina Gold   BRAND NEW SEALED - Bid Now! Only $1146.34 https://t.co/O7GspZYpjx https://t.co/sHxvLwJkIP
p52
aVApple MacBook Air A1465 11.6" Laptop (Mid 2012) 64gb - Bid Now! Only $325.0 https://t.co/4HS6XX7bM7 https://t.co/YS17tYYEWp
p53
aVApple Macbook Air 12" Retina Gold   BRAND NEW SEALED - Bid Now! Only $1146.34 https://t.co/hPwXniDFC1 https://t.co/nkptQzhkI0
p54
aVApple MacBook Air A1465 11.6" Laptop (Mid 2012) 64gb - Bid Now! Only $325.0 https://t.co/SRaNlGz1KM https://t.co/eQEiyVR1cT
p55
aVApple Macbook Air 12" Retina Gold   BRAND NEW SEALED - Bid Now! Only $1146.34 https://t.co/hsIs5Oy17c https://t.co/mFrmMgUuZW
p56
aVApple MacBook Air A1465 11.6" Laptop (Mid 2012) 64gb - Bid Now! Only $325.0 https://t.co/2nZjZeYwZ0 https://t.co/RaNnHRKywg
p57
aVApple Macbook Air 12" Retina Gold   BRAND NEW SEALED - Bid Now! Only $1146.34 https://t.co/32odfU2cFh https://t.co/szfKLfgqMD
p58
aVIt's so hard to not spend my paychecks because I'm saving for a MacBook Air &amp; I'm almost there but still \U0001f62b\U0001f62b\U0001f60d
p59
aVApple MacBook Air A1465 11.6" Laptop (Mid 2012) 64gb - Bid Now! Only $325.0 https://t.co/S4QRKdoSN5 https://t.co/7v93abZ7Ge
p60
aVApple Macbook Air 12" Retina Gold   BRAND NEW SEALED - Bid Now! Only $1146.34 https://t.co/QUWgJwnaLf https://t.co/aOgfOAPJMP
p61
aVApple MacBook Air A1465 11.6" Laptop (Mid 2012) 64gb - Bid Now! Only $325.0 https://t.co/BeeQlOuWzp https://t.co/dfKoAX0kZK
p62
aVApple MacBook Air A1465 11.6" Laptop (Mid 2012) 64gb - Bid Now! Only $325.0 https://t.co/OeHw6rnnCK https://t.co/KNtKKOQykn
p63
aVApple Macbook Air 12" Retina Gold   BRAND NEW SEALED - Bid Now! Only $1146.34 https://t.co/H8K429nxZo https://t.co/2oHDc7yE5j
p64
aVApple MacBook Air A1465 11.6" Laptop (Mid 2012) 64gb - Bid Now! Only $325.0 https://t.co/S4QRKdoSN5 https://t.co/YzuZ5FiP6e
p65
aVApple Macbook Air 12" Retina Gold   BRAND NEW SEALED - Bid Now! Only $1146.34 https://t.co/lZTIY1f3vI https://t.co/D3dVFkoe5A
p66
aVApple Macbook Air 12" Retina Gold   BRAND NEW SEALED - Bid Now! Only $1146.34 https://t.co/QUWgJwnaLf https://t.co/wUP5WgJ7mr
p67
aVApple MacBook Air A1465 11.6" Laptop (Mid 2012) 64gb - Bid Now! Only $325.0 https://t.co/MT185igNyH https://t.co/lWF0OBmOrd
p68
aVApple Macbook Air 12" Retina Gold   BRAND NEW SEALED - Bid Now! Only $1146.34 https://t.co/ILKiUzg5PU https://t.co/d9ZYPfENFd
p69
aVOMG NEW MACBOOK AIR 2000 DOLLAR COASTER https://t.co/mW1sJ6LsEY
p70
aVApple MacBook Air A1465 11.6" Laptop (Mid 2012) 64gb - Bid Now! Only $325.0 https://t.co/eDolyqLjiR https://t.co/sXZQXRFbU3
p71
aVApple Macbook Air 12" Retina Gold   BRAND NEW SEALED - Bid Now! Only $1146.34 https://t.co/ng9QEufNLK https://t.co/MOlkgMvIvS
p72
aVMini Display Port DP Male to HDMI Female Cable Adapter for MAC Macbook AIR PROMY - Buy It \u2026 https://t.co/iYEKdtDb5E https://t.co/zMETUxewh3
p73
aVApple MacBook Air A1465 11.6" Laptop (Mid 2012) 64gb - Bid Now! Only $325.0 https://t.co/K609bZKObu https://t.co/xfD8nat9IO
p74
aVApple MacBook Air A1465 11.6" Laptop (Mid 2012) 64gb - Bid Now! Only $325.0 https://t.co/Hdqgo6oHjI https://t.co/QGnDkLlcOU
p75
aVApple Macbook Air 12" Retina Gold   BRAND NEW SEALED - Bid Now! Only $1146.34 https://t.co/36sw6tx6xO https://t.co/paRv8iNlRo
p76
aVApple MacBook Air A1465 11.6" Laptop (Mid 2012) 64gb - Bid Now! Only $325.0 https://t.co/3htAHF0DvF https://t.co/iS5mXvCAmh
p77
aVApple Macbook Air 12" Retina Gold   BRAND NEW SEALED - Bid Now! Only $1146.34 https://t.co/m547GiYjF4 https://t.co/awSRQdtcMe
p78
aVApple Macbook Air 12" Retina Gold   BRAND NEW SEALED - Bid Now! Only $1146.34 https://t.co/oW1y6SiLN4 https://t.co/0YKxT1OI33
p79
aVRT @alltwerknation: Click to join our MacBook Air giveaway contest! https://t.co/XrIEtmkgkt
p80
aVAPPLE MACBOOK AIR 11 1.4GHZ I5 4GB 128GB SSD 2014 MD711LL/B LAPTOP OFFICE 11 https://t.co/MsLQgAyvNr https://t.co/eYeFsqX5aZ
p81
aVBack this Kickstarter and you could win a Macbook Air https://t.co/QCnSr28EIs
p82
aVSell : #Gearmax Macbook Air Pro Sleeve Computer \u2026 singapore https://t.co/3BEbJIJPp3
p83
aVBack this Kickstarter and you could win a Macbook Air https://t.co/jCCEUxoKOU
p84
aVMacBook Air Organic Leather Sleeve | RAW | https://t.co/5XE38h1fOJ | #MacBookAirSleeve #MacBookAirCover #MacBookAIR https://t.co/aFNtugbC6L
p85
aVBack this Kickstarter and you could win a Macbook Air https://t.co/GxmDdfVOI4
p86
aVOkay so my cat decided to take a piss on my MacBook Air can anyone help me and tell me what to do cause I'm freaking out\U0001f62d\U0001f62d
p87
aVToday's #bargain? Check #CyberMonday #Apple MacBook Air MC505LL/A 11.6-Inch #Laptop https://t.co/L2qUZADAb3  #tech #deals
p88
aVBack this Kickstarter and you could win a Macbook Air https://t.co/o7oBOJjyOo
p89
aVdbramante1928 Leather Case for MacBook Air 11 Inch - Suede The dbramante1928 Sue...  https://t.co/CoDqfgXP3Z https://t.co/wKgztvkmez
p90
aVThunder Cats V1 Decal Sticker Skin for Apple MacBook Air/Pro Laptop 13\u201d 15\u201d 17\u201d https://t.co/HOfzmGXT3H https://t.co/edmtDD3H0p
p91
aV#Deals #281 https://t.co/BfSTmWpFHn MacBook Air 11" A1370 A1465 Keyboard Replacement Service WOW! Only $99\u000a\u000a$99.00\u2026 https://t.co/xnMGeibaz6
p92
aV@RYXwoods20 Yeah, for me it'd be between the MacBook and the 13" Air. The Retina display is tempting, but the Air's specs are pretty great.
p93
aVDeals Today &gt;&gt; https://t.co/tbFXzY08X6 #6683 #2649 MacBook Air 11" A1370 A1465 Keyboard Replacement Service WOW! O\u2026 https://t.co/HpAamqwUl6
p94
as.