(dp0
I0
(lp1
VI can't have everything I want. you win some you lose some \U0001f644
p2
aV@IntTam  Both DMK &amp; AIADMK compete with each other in all sorts of dirty tricks to win election by hook or by crook.
p3
aVRT @VDPAssociates: Women voters powering AIADMK to a second straight win over DMK #TN2016
p4
aVRT @VDPAssociates: Women voters powering AIADMK to a second straight win over DMK #TN2016
p5
aVParty obedience is good in AIADMK than DMK. To win in the election DMK should control their internal party issues.
p6
aV@mkstalin @imVkohli great win and same in Tamilnadu election DMK will win ..
p7
aVRT @VDPAssociates: Women voters powering AIADMK to a second straight win over DMK #TN2016
p8
aV@TamilTheHindu Cong can twist the arm of DMK to win 3 MLA seats.DMK has to touch the feet of Cong for survival.But BJP need no fear.
p9
aVRT @VDPAssociates: Women voters powering AIADMK to a second straight win over DMK #TN2016
p10
aVWomen voters powering AIADMK to a second straight win over DMK #TN2016
p11
as.