(dp0
I0
(lp1
VPerfect 2015 13\u201d Macbook Air\u2014under warranty\u2014Office &amp; Photoshop https://t.co/Yq0oF9ZILQ https://t.co/2TETkgvmRZ
p2
aVApple Macbook Air 2015 Intel Core i5 Broadwell 11.6" Laptop (4GB/128GB SSD) $720; 13.3" for\u2026 https://t.co/W94k72w1gf
p3
aV@SquareTrade  I bought used Macbook Air 13" (Early 2015), 512 gb SSD, 8 gb ram, i7 2.2 ghz was covered under Applecare. Can I get SquareT?
p4
aV2015 Apple Macbook Air 13" Intel core i5 @ 1.6Ghz 4 GB 128GB SSD + extras - Bid Now! Only \u2026 https://t.co/unx3qBclWZ https://t.co/DcSi1ziIy9
p5
aV#BestBuy: Apple MacBook Air (2015): i5-5250U, 13.3" 1440x900, 128GB SSD, 4GB LPDDR3, HD 60\u2026 https://t.co/WyQFsKsP4y https://t.co/FxUqaE58M8
p6
aVApple MacBook Air A1466 13.3" Laptop MJVE2LL/A (Latest 2015 Model) +Warranty - Bid Now! On\u2026 https://t.co/1oI9ZUJ13z https://t.co/gI3F45wqU7
p7
aVApple MacBook Air A1466 13.3" Laptop MJVE2LL/A (Latest 2015 Model) +Warranty - Bid Now! On\u2026 https://t.co/dfAOdRCoBA https://t.co/usGJU0RW2X
p8
aVApple MacBook Air A1466 13.3" Laptop MJVE2LL/A (Latest 2015 Model) +Warranty - Bid Now! On\u2026 https://t.co/uH9RGMJrRO https://t.co/vdtEOClSuj
p9
aVApple MacBook Air A1466 13.3" Laptop MJVE2LL/A (Latest 2015 Model) +Warranty - Bid Now! On\u2026 https://t.co/f9HvKPNcSe https://t.co/2e6nUdUV6B
p10
aVApple MacBook Air A1466 13.3" Laptop MJVE2LL/A (Latest 2015 Model) +Warranty - Bid Now! On\u2026 https://t.co/BfNkPE81Wb https://t.co/RcmHG1YG4n
p11
aVApple MacBook Air A1466 13.3" Laptop MJVE2LL/A (Latest 2015 Model) +Warranty - Bid Now! On\u2026 https://t.co/8rdSaC0Z0I https://t.co/tr9cipf8KM
p12
aVApple MacBook Air A1466 13.3" Laptop MJVE2LL/A (Latest 2015 Model) +Warranty - Bid Now! On\u2026 https://t.co/DfecaO1bvD https://t.co/s1yXwxxII9
p13
aVApple MacBook Air A1466 13.3" Laptop MJVE2LL/A (Latest 2015 Model) +Warranty - Bid Now! On\u2026 https://t.co/5gFBV7kT5f https://t.co/94U84GB7iO
p14
aVApple MacBook Air A1466 13.3" Laptop MJVE2LL/A (Latest 2015 Model) +Warranty - Bid Now! On\u2026 https://t.co/QOoqrxO7J8 https://t.co/70G9U4V2oa
p15
aVApple MacBook Air A1466 13.3" Laptop MJVE2LL/A (Latest 2015 Model) +Warranty - Bid Now! On\u2026 https://t.co/paUputdvZs https://t.co/s3RXwHJ07Z
p16
aVApple MacBook Air A1466 13.3" Laptop MJVE2LL/A (Latest 2015 Model) +Warranty - Bid Now! On\u2026 https://t.co/EVn971pahf https://t.co/TfiVEUaASK
p17
aVApple MacBook Air A1466 13.3" Laptop MJVE2LL/A (Latest 2015 Model) +Warranty - Bid Now! On\u2026 https://t.co/mo0IVczVwg https://t.co/E5MPWLPLn9
p18
aVApple MacBook Air A1466 13.3" Laptop MJVE2LL/A (Latest 2015 Model) +Warranty - Bid Now! On\u2026 https://t.co/mo0IVczVwg https://t.co/Fmqssva8Pi
p19
aVApple MacBook Air A1466 13.3" Laptop MJVE2LL/A (Latest 2015 Model) +Warranty - Bid Now! On\u2026 https://t.co/cKj98EJcGa https://t.co/ml3AysUvFX
p20
aVfrom $400 - New 2015 Apple 13" #MacBook Air I7 2.2ghz 8gb Ram 1tb https://t.co/AC6NXWavcj https://t.co/0Mr3ezsvM9
p21
aVApple Macbook Air A1465 11.6" Laptop - Mjvm2ll/a (march, 2015) (latest Model https://t.co/QXrzNC3f8L Last Second OutBid \u21baRT, Fav
p22
aVDaily Slick Deals Apple MacBook Air (2015): i5-5250U, 13.3" 1440x900, 128GB SSD, 4GB LP... https://t.co/TPoJag3z4z https://t.co/NBv21Ye8Qd
p23
aV2015 Apple MacBook Air 11.6 Inch 1.6GHz Dual Core i5 4GB SDRAM 128GB Storage /$404.00 with 31m left https://t.co/XllfjLjQbD #apple
p24
aVApple MacBook Air A1466 13.3" Laptop MJVE2LL/A (Latest 2015 Model) +Warranty - Bid Now! On\u2026 https://t.co/QmfZc2IA6G https://t.co/aMLYtQfJq1
p25
aVApple MacBook Air A1466 13.3" Laptop MJVE2LL/A (Latest 2015 Model) +Warranty - Bid Now! On\u2026 https://t.co/1YZHeq5p6X https://t.co/cwKwt8oUS2
p26
aVApple MacBook Air A1466 13.3" Laptop MJVE2LL/A (Latest 2015 Model) +Warranty - Bid Now! On\u2026 https://t.co/hhaPOQhNqr https://t.co/ofLnhhNKLo
p27
aVApple MacBook Air A1466 13.3" Laptop MJVE2LL/A (Latest 2015 Model) +Warranty - Bid Now! On\u2026 https://t.co/B2HLirNhW9 https://t.co/i5oaRQFxe5
p28
aVApple Macbook Air 13.3\u2033 5th Gen Core i5 128GB Laptop (2015) $750 https://t.co/z4RNE6Bc5Y Bestbuy, Laptops, USA, Ap\u2026 https://t.co/yvVh7vqLWN
p29
aVApple MacBook Air A1466 13.3" Laptop MJVE2LL/A (Latest 2015 Model) +Warranty - Bid Now! On\u2026 https://t.co/c50l2GITpi https://t.co/HayslnBVaj
p30
aVApple MacBook Air A1466 13.3" Laptop MJVE2LL/A (Latest 2015 Model) +Warranty - Bid Now! On\u2026 https://t.co/RhZCp13pHA https://t.co/ollKM6vwcb
p31
aVApple MacBook Air A1466 13.3" Laptop MJVE2LL/A (Latest 2015 Model) +Warranty - Bid Now! On\u2026 https://t.co/MGRJ0sSq4r https://t.co/iOksiOt2vl
p32
aVApple MacBook Air A1466 13.3" Laptop MJVE2LL/A (Latest 2015 Model) +Warranty - Bid Now! On\u2026 https://t.co/T5TgGVoTo3 https://t.co/uykuHrLOpL
p33
aVApple Macbook Air I5 A1465 11.6" Laptop - Mjvm2ll/a (march, 2015) Water Dama https://t.co/0rh3rqHXVW Free Ebay Sniping \u21baRT, Favo
p34
aVApple Macbook Air 13.3" Laptop 2015 128 Gb https://t.co/uFEcDBR1Yu Free Ebay Sniping \u21baRT, Favorite, Share
p35
aV@MrMarshall88 MacBook Air 13" early 2015
p36
aVApple MacBook Air (2015): i5-5250U, 13.3" 1440x900, 128GB SSD, 4GB LPDDR3, HD 6000 $749.99 + Free Shipping\u2026 https://t.co/76azHSiLft
p37
aVApple MacBook Air (2015): i5-5250U, 13.3" 1440x900, 128GB SSD, ... - https://t.co/MXYQVuSOAF https://t.co/WqfzJ5OAkS
p38
aVApple MacBook Air (2015): i5-5250U, 13.3" 1440x900, 128GB SSD, ... - https://t.co/c7sJVu40Lj https://t.co/UJxzg0Xb3v
p39
aVApple MacBook Air (2015): i5-5250U, 13.3 and quot; 1440x900, 128GB SSD, 4GB LPDDR3, HD 6000 $749.99 + Free Shippin\u2026 https://t.co/WmHrvlYZLj
p40
aVNEW 2015 Latest Apple MacBook Air 13" 2.2Ghz Core i7 8GB 512GB Flash MJVG2LL/A - Bid Now! \u2026 https://t.co/U9EEShyQIz https://t.co/WEaYxjJ5lI
p41
aV2015 Apple Macbook Air 13" Intel core i5 @ 1.6Ghz 4 GB 128GB SSD + extras - Bid Now! Only \u2026 https://t.co/6KWfxm1080 https://t.co/u93siNAz6M
p42
aV2015 Apple Macbook Air 11.6 Inch 1.6ghz Dual Core I5 4gb Sdram 128gb Storage https://t.co/OrQjtu2EXk Last Second OutBid \u21baRT, Fav
p43
aVApple MacBook Air (2015): i5-5250U, 13.3 and quot; 1440x900, 128GB SSD, 4GB LPDDR3, HD 6000 $749.99 + Free Shi... https://t.co/a6aqd43wzB
p44
aV#deals #apple APPLE MACBOOK AIR 13" EARLY 2015 INTEL i5 1.6GHz 4GB 128GB HDD MODEL MJVE2LL/A:  $749.00End Dat... https://t.co/WfBQVTXHMM #\u2026
p45
aV#apple APPLE MACBOOK AIR 13" EARLY 2015 INTEL i5 1.6GHz 4GB 128GB HDD MODEL MJVE2LL/A:  $749.00End Dat... https://t.co/yUzli5etuz #eBayUS
p46
aVApple MacBook Air (2015): i5-5250U, 13.3" 1440x900, 128GB SSD, 4GB LPDDR3, HD 6000 $749.99 + Free Shipping\u2026 https://t.co/FMC5hz2IUA
p47
aVApple MacBook Air (2015): i5-5250U, 13.3" 1440x900, 128GB SSD, 4GB LPDDR3, HD 6000 $749.99 + ... https://t.co/zuCs6aTOSp #dealster #deals
p48
aV#coupon #deal Apple MacBook Air (2015): i5-5250U, 13.3" 1440x900, 128GB SSD, 4GB LPDDR3... https://t.co/iHDFvlvwjG https://t.co/avlLb1N1K7
p49
aVMACBOOK AIR 13 INCHES, EARLY 2015 (WITH OS X EL CAPITAN - LATEST SOFTWARE) https://t.co/cMlaHP5fkD https://t.co/pxbSAry0MW
p50
aVMACBOOK AIR 13 INCHES, EARLY 2015 (WITH OS X EL CAPITAN - LATEST SOFTWARE) https://t.co/9cZ5FOBQiP https://t.co/RyOn40YPMe
p51
aVMacBook Air 13" (2015) Case- Baby Pink https://t.co/4FHaODevB5 https://t.co/zRK05Hb2FO
p52
aVApple Macbook Air 13.3" 5th Gen Core i5 128GB Laptop (2015) $750 at Best Buy https://t.co/5i4lB8DM6Z
p53
aVApple Macbook Air 13.3" 5th Gen Core i5 128GB Laptop (2015) $750 at Best Buy https://t.co/oCXoJan2Cg https://t.co/2QQ42pYkiH
p54
aVAPPLE MACBOOK AIR 2015 13.3' I5 1.6GHZ 4GB 256GB REPAIRS &amp; SERVICE APRIL 18,2017 https://t.co/9eVXcizJSx https://t.co/4K2XKWLesW
p55
aVI liked a @YouTube video https://t.co/bL3MERNnci Apple iPad Pro vs 2015 13.3" Macbook Air
p56
aVApple 13.3" MacBook Air MJVG2LL/A (Early 2015) - Buy It Now! Only $908.77 https://t.co/RZOK8AmAbK https://t.co/TwPdYX0aWJ
p57
aVApple 13.3" MacBook Air MJVG2LL/A (Early 2015) - Buy It Now! Only $908.77 https://t.co/HZ4VS3zaMb https://t.co/fHvDNC2IQn
p58
aVApple 13.3" MacBook Air MJVG2LL/A (Early 2015) - Buy It Now! Only $908.77 https://t.co/nUXkxmeYW9 https://t.co/bO8U6SJQJR
p59
aVApple 13.3" MacBook Air MJVG2LL/A (Early 2015) - Buy It Now! Only $908.77 https://t.co/Yf4plxsAqv https://t.co/okDCdu6R5P
p60
aVApple 13.3" MacBook Air MJVG2LL/A (Early 2015) - Buy It Now! Only $908.77 https://t.co/qzdm0V01kP https://t.co/PXFBjjuhEE
p61
aVApple 13.3" MacBook Air MJVG2LL/A (Early 2015) - Buy It Now! Only $908.77 https://t.co/nUXkxmeYW9 https://t.co/mRmEicdmYG
p62
aVApple 13.3" MacBook Air MJVG2LL/A (Early 2015) - Buy It Now! Only $908.77 https://t.co/qoa5o4iDy4 https://t.co/eEkdU4fHfL
p63
aVApple 13.3" MacBook Air MJVG2LL/A (Early 2015) - Buy It Now! Only $908.77 https://t.co/vVBedY3RT7 https://t.co/SQGDcBZxJa
p64
aVApple 13.3" MacBook Air MJVG2LL/A (Early 2015) - Buy It Now! Only $908.77 https://t.co/yS11NJen8g https://t.co/KdWmJxflb8
p65
aVApple 13.3" MacBook Air MJVG2LL/A (Early 2015) - Buy It Now! Only $908.77 https://t.co/wRPjuQvEFt https://t.co/fQ18DiQu2b
p66
aVApple 13.3" MacBook Air MJVG2LL/A (Early 2015) - Buy It Now! Only $908.77 https://t.co/ufbL752nEW https://t.co/h8oxKMY8WF
p67
aVApple 13.3" MacBook Air MJVG2LL/A (Early 2015) - Buy It Now! Only $908.77 https://t.co/oyM1nMx0sy https://t.co/yxYRJhTF2g
p68
aVApple 13.3" MacBook Air MJVG2LL/A (Early 2015) - Buy It Now! Only $908.77 https://t.co/MuVjkfsa3L https://t.co/MYGz3R3vTK
p69
aVApple 13.3" MacBook Air MJVG2LL/A (Early 2015) - Buy It Now! Only $908.77 https://t.co/xw6SH2NGz5 https://t.co/5IW4cIGwwT
p70
aV#ForSale #Macbook air going cheap, Best Buy ! #Dubai  https://t.co/w3mRRPoXDM
p71
aV2015 Brand New Sealed Apple 13.3" Macbook Air 1.6/4gb/128gb Mjve2ll/a https://t.co/6hd1FUoze1 Ebay Snipe \u21baRT, Favorite, Share
p72
aV#MacBook Air "Core i5" 1.6 13" (Early 2015) - https://t.co/V7K0IlUwT3 |  #MacBook Air "Core ... https://t.co/EtrBFwH6Os
p73
aVApple Macbook Air 13.3" Laptop - Mjvg2ll/a (2015) https://t.co/230go3fqkP Ebay Bid Last Second \u21baRT, Favorite, Share
p74
aVMacbook Air Early 2015 "13.3" C1mpc84yg940 https://t.co/PVuDqixoby Ebay Bid Last Second \u21baRT, Favorite, Share
p75
aVIncase Neoprene Classic Sleeve Pouch Case for 2015 MacBook 12"/Air 11" Black 427 https://t.co/Yr1XeVbwAJ https://t.co/GlxNYKmcAD
p76
aVSAVE $4.86 - Apple MacBook Air MC505LL/A 11.6-Inch Keyboard Silicone caseOLD Version and (Mar-2015) Newest... https://t.co/yr3zLEO4aR #sale
p77
aV#deals #apple 2015  13"MacBook Air 1.6 Ghz i5,4  GB Ram,128 GB Flash Storage:  $699.00End Date: Tuesday Apr-2... https://t.co/8pDYh1Jx8T #\u2026
p78
aV#apple 2015  13"MacBook Air 1.6 Ghz i5,4  GB Ram,128 GB Flash Storage:  $699.00End Date: Tuesday Apr-2... https://t.co/XScpwYCoxS #eBayUS
p79
aVMacbook Air 13'' A1466 LCD 2013-2015 Display Assembly Good Condition https://t.co/PZnvzMhZ5f https://t.co/CilS21zMqd
p80
aV#C09 GEARMAX Senior #NEW #Laptop #Bag #Sleeve for Macbook air #PRO pouc https://t.co/g39l2S2pJ7 #SuperDeals https://t.co/B0PRrpTeSX
p81
aVApple MacBook Air A1465 Early 2015 - 11 inch - Core i7 8G 256GB https://t.co/DS1ajyAa1O https://t.co/W8PMewdsdI
p82
as.