(dp0
I0
(lp1
VRT @CNN: After the "Purple Rain," a rainbow over Prince's Paisley Park Studios. The week in 30 photos https://t.co/YCcEFJUGhV https://t.co/\u2026
p2
aVRT @CNN: Stevie Wonder: I'm glad I was able to say "I love you" to Prince the last time I saw him https://t.co/p5CDQw3qIt https://t.co/2R2D\u2026
p3
aVRT @drkent: Brilliant article: Surviving a Long Alaskan Winter with #Prince https://t.co/w5M9heVXjD #rip https://t.co/Z1jAWyABux
p4
aV#Bellator153 pays tribute to #Prince by opening main @BellatorMMA card on @spike with #1999
p5
aVPrince Performs \u201cPurple Rain\u201d During Downpour | Super Bowl XLI Halftime Show | NFL https://t.co/mhqhplToP9
p6
aVRT @shvrdae: When my teacher found out Prince died https://t.co/biNapKWJBU
p7
aV"Life is just a party..and parties weren't meant to last." \u000a-Prince.
p8
aVRT @KensingtonRoyal: Prince George thanks @BarackObama for his rocking horse, given to him when he was born https://t.co/xXIF8QeQvz
p9
aVRT @DailyRapFacts: Will Smith spoke to Prince the night before he passed https://t.co/KTUaJ0Slik
p10
aVRT @MikeElChingon: How did a joke turn into wishing Trump deports me? \U0001f610 I did not disrespect MJ nor Prince https://t.co/W1QR4aeufN
p11
aVRT @FunnyMaine: How Black Ppl Are Feeling Now That Prince, MJ, Luther &amp; Whitney Are Gone https://t.co/tA4AjUQDaD
p12
aVRT @SITSSHOW: A Compilation of Theories | Prince and the Illuminati Blood Sacrifice Conspiracy https://t.co/niJCIoDvG8 https://t.co/irpHkWR\u2026
p13
aVRT @nxrdsworld: prince: sis lets not https://t.co/KqMwS6brT0
p14
aVRT @RollingStone: In 1984, Kurt Loder interviewed Prince for a cover story on 'Purple Rain.' Read it in full https://t.co/M5YocAh6KW https:\u2026
p15
aVMy walk home last night strutting to #Prince. #RIPPrince #Paulantics #PurpleRain @ Brooklyn, New\u2026 https://t.co/Vkf6O3ZT30
p16
aVRT @DJKingAssassin: \u26a1\ufe0f "Prince's autopsy reveals no signs of trauma or suicide"\u000a\u000ahttps://t.co/l8sCSpSSAd
p17
aVRT @eonline: MSNBC's Tamron Hall's final conversation with "best friend" Prince will give you chills: https://t.co/fLDjW6E2VQ https://t.co/\u2026
p18
aVRT @PaulStanleyLive: If you need hip replacement &amp; can't do it,pain can be excruciating&amp;unrelenting.Don't jump to judge a tragedy #Prince h\u2026
p19
aVRT @eup24: Autopsy on Prince completed, no signs of trauma or suicide... https://t.co/Rud9mLbqKC https://t.co/b5utJLPm1U
p20
aVAdorbs !!! That Prince George is so cute.  I can't get enough of the PBO &amp; kids pictures. https://t.co/yYmbcwV9ti
p21
aVPrince, a Master of Playing Music and Distributing It https://t.co/paxymvEU5D via @instapaper
p22
aVRT @JackJackJohnson: RIP Prince. You were an innovative soul. The world needs people like that.
p23
aVRT @RevoltTV: Frank Ocean comes out of hiding once again, to pay tribute to #Prince with an open letter. #RIPPrince: https://t.co/Z3qTa735CS
p24
aVRT @TheWrap: 'Saturday Night Live' to Honor Prince With Clip Show of Musical Performances https://t.co/k3Wbz13wQI https://t.co/FcMP1ccZQQ
p25
aVRT @LindseySeavert: Prince's family members walked out and gave the #PaisleyPark mourners  dozens and dozens of pizzas. @kare11 #Prince htt\u2026
p26
aVRT @TheDoobieBros: Still can't believe the loss that rocked the music world yesterday.\u000aThe brilliance of #Prince's talent will live on. htt\u2026
p27
aVmillennial tip: if someone asks if you're ~too young~ to know about prince, say "oh, no, he was in new girl one time, right?" and just WATCH
p28
aVThe Customer Isn't Always Right: Watch Prince Kick Kim Kardashian off his Stage https://t.co/o8u338xan8 via @Entrepreneur
p29
aVPrince Dies At 57: How Minnesota\u2019s Sports Teams Reacted https://t.co/pSBphmv6vu via @Newsweek https://t.co/bvaVQabSfZ
p30
aVRT @ndccharity: #RIPPrince: Why we mourn the days the music dies @CNN https://t.co/I6IdaYVyxo #DigitalGrief #DeathOnline
p31
aVAll Prince hits https://t.co/iW3qSHc9N7
p32
aVRT @xandertheblue: never forget that Prince was the punchline of the dirtiest Animaniacs joke ever https://t.co/ncnYc3Oc88
p33
aVRT @Platini_954: MJ gave us records Prince couldn't, and Prince gave us records MJ couldn't. No need to compare the two.
p34
aVRT @PeteAbe: This tribute Chevy did for Prince is perfect. https://t.co/MWu1nxJ3yJ
p35
aVRT @fimoculous: My Prince story: Took a girl to a late-night Paisley Park show. Bodyguard approached girl, "Want to meet Prince?" Never saw\u2026
p36
aVRIP PRINCE.
p37
aVChina smacks down Apple https://t.co/G9iu4QO2qp #finance https://t.co/iXo1rFwuRn
p38
aVRT @DavidClinchNews: Here are the pics of Prince George getting to stay up late to meet @POTUS and @FLOTUS at @KensingtonRoyal https://t.co\u2026
p39
aVRT @JODYHiGHROLLER: PRiNCE DiDNT DiE HE JUST GOT BORED OF EARTH\u000a\u000aTHE PEACH PRiNCE WiLL NEVER BE FORGOTTEN \u000a\u000aGOD BLESS U PRiNCE https://t.co\u2026
p40
aVRT @HyunINC: (people think Prince was bi-racial cause of the movie)
p41
aVRT @abroaddus: Paisley Park staff and family members delivering pizza to fans. #Prince https://t.co/Nxkcq71Xbn
p42
aVRT @ReignOfApril: The Vault needs to stay closed. With all of the control Prince painstakingly took over his catalog, if he wanted it relea\u2026
p43
aV@faris_almalkiii you are prince \U0001f60e\U0001f60e\u2764\ufe0f
p44
aV#m Prince Dead at 57 Go &gt; https://t.co/nFDRzZDH7t https://t.co/iISOvchfkP
p45
aVRT @Ezby: Prince wore makeup and heels and he'd still fuck yo bitch.
p46
aVRT @Independent_ie: 'Sorry about the weather!' - Kate, William and Harry greet Obamas at Kensington palace https://t.co/ImUPx3WISs https://\u2026
p47
aVRT @ali_frederick: \u2022 The King \U0001f451\u000a\u2022 The Queen \U0001f483\U0001f3fd\u000a\u2022 The Prince \u2602\u000a\u000aGone too soon.\u000a\u000a#PrinceRIP https://t.co/qm7TAsjOoG
p48
aV@marklevinshow @DanProft @rushlimbaugh waiting to here why Prince gets an autopsy not Scalia.
p49
aVRT @lisafordblog: RIP PRINCE!! VIDEOS &amp; A COLLECTION OF VINYLS w/ @DJGiovanniNsane &amp; @Lisafordblog https://t.co/XYXvC3oeBV
p50
aVRT @KensingtonRoyal: Prince George meets The President and First Lady of the United States https://t.co/HZxelhSSr4
p51
aVRIP \U000fe35b\U0001f3fb Prince #cocktails in your honor #purplerainforever https://t.co/npWY7auDMM
p52
aVRT @aparnapkin: I think we all knew Prince would leave the party before it got lame, even if it was his party.
p53
aV@THEChrisMack Situational voices: Beano Cook on Saturdays; Mahrn on Sundays; Bob Prince late at night; Lange on hockey nights...Rege Cordic?
p54
aVRT @GAFollowers: In honor of Prince, GA-based @CarmikeCinemas will screen the classic \u201cPurple Rain\u201d at theaters beginning tomorrow. https:/\u2026
p55
aV'We Will Never Know Why' Dept: Prince spends a fortune changing his name to that symbol, 1st track of 'symbol' album is 'My Name is Prince'
p56
aVRT @jarastaroots: Prince autopsy complete Body turned over to family Won't know cause of death for some time Olson @3ChicsPolitico @EnigmaN\u2026
p57
aVRT @JODYHiGHROLLER: PRiNCE DiDNT DiE HE JUST GOT BORED OF EARTH\u000a\u000aTHE PEACH PRiNCE WiLL NEVER BE FORGOTTEN \u000a\u000aGOD BLESS U PRiNCE https://t.co\u2026
p58
aVRT @GMA: Prince George is quite possibly the coolest kid in the world. https://t.co/6wHrYOCwT6
p59
aVRT @jessetyler: I can't stand how cute Prince George is. That robe!!! \U0001f62d https://t.co/v0C4i8gy5C
p60
aVRT @TamaraJanelle: I don't care how Prince died. It could have been a heart attack, drugs, natural causes, or what ever....My love for him\u2026
p61
aVListening to Prince's earlier work has been blowing my mind throughout the day
p62
aVDavid Bowie, Allan Rickman, Prince, and now Percy Sledge. 2016 can stop now. it has taken too many of my idols. and it's only April.
p63
aVRT @Exposing_celebz: Will never see anyone match up to what Prince&amp;MJ brought to this  world. Musical geniuses &amp; pioneers #RIP https://t.co\u2026
p64
aVNo but seriously where's Prince hiding lol
p65
aVRT @lanaluxe: \U0001f49c\u2728PURPLE\u2022RAIN\u2728\U0001f49c My tribute to the ever so wonderful Prince, Rip\U0001f498 All details on my insta follow (@lana_luxe) \u2728 https://t.co/n\u2026
p66
aVRT @austria63amy: Prince - rest in peace! @StreetFoodUK https://t.co/EfQLvdvSYg
p67
aVRT @TIME: Stevie Wonder gets emotional talking about Prince https://t.co/RvDx80DzN1
p68
aVRT @nancyhenry_: Shared on Facebook.....This is a #PurpleRain drink, in memory of #Prince https://t.co/bkfaUVtuwE
p69
aVRT @CNN: After the "Purple Rain," a rainbow over Prince's Paisley Park Studios. The week in 30 photos https://t.co/YCcEFJUGhV https://t.co/\u2026
p70
aVRT @CNN: After the "Purple Rain," a rainbow over Prince's Paisley Park Studios. The week in 30 photos https://t.co/YCcEFJUGhV https://t.co/\u2026
p71
aVRT @DailyMailCeleb: That time Prince threw Kim Kardashian off stage because she REFUSED to dance with him https://t.co/29FxFdHNOh https://t\u2026
p72
aVRT @lanaluxe: \U0001f49c\u2728PURPLE\u2022RAIN\u2728\U0001f49c My tribute to the ever so wonderful Prince, Rip\U0001f498 All details on my insta follow (@lana_luxe) \u2728 https://t.co/n\u2026
p73
aVRT @allkpop: Why did Song Joong Ki and Jin Goo argue over AOA and SISTAR? https://t.co/bcZvbjPg6H https://t.co/czM1fHIV9Y
p74
aV@9PM!!! CALL UP (646)929-2384 for a free reading Live Tonight @9pm EST. https://t.co/ObxsjMIZ4B https://t.co/WCwVZI724E
p75
aVRT @reasereaser: Put on a dance show for my Dad and his gf when I was 12. To Darling Nikki. Nothing could be more inappropriate. I love you\u2026
p76
aVRT @anyaxhudson: legends like prince and bowie are dying left right and centre but the queen is 90 and keeps going lol cba
p77
aVRT @WORLDSTAR: Prince's autopsy has been completed. Cause of death could possibly be an overdose. \U0001f64f https://t.co/ggkGiM13T3
p78
aVRT @KensingtonRoyal: .@BarackObama and @MichelleObama arrive at Kensington Palace for dinner with The Duke, Duchess and Prince Harry https:\u2026
p79
aVRT @FranciscoLWhite: Prince showed me genderqueer before I could articulate genderqueerness. It didn't need words. I was here for that more\u2026
p80
aVRT @meganamram: Put Prince on the 69 dollar bill
p81
aVRT @lanaluxe: \U0001f49c\u2728PURPLE\u2022RAIN\u2728\U0001f49c My tribute to the ever so wonderful Prince, Rip\U0001f498 All details on my insta follow (@lana_luxe) \u2728 https://t.co/n\u2026
p82
aVRT @1DsVocal: Remember when Harry went to pick up some pumpkins and he looked like a Prince. https://t.co/ftIBxmr2gr
p83
aVRT @cnni: After the "Purple Rain," a rainbow over Prince's Paisley Park Studios. The week in 30 photos https://t.co/24FIg8d1Ox https://t.co\u2026
p84
aVRT @abroaddus: Paisley Park staff and family members delivering pizza to fans. #Prince https://t.co/Nxkcq71Xbn
p85
aVRT @BrotherDante: We expect our heroes to live forever until mortality sneaks up and reminds us otherwise. RIP Prince.
p86
aVRT @GeorgiChase: Noel Gallagher and fans tribute to Prince last night \U0001f64c\U0001f3fb https://t.co/m20UmNc9tq
p87
aVRT @WORIDSTARHIPHOP: Birdman look like Cobra Bubbles from lilo and stitch \U0001f602\U0001f602\U0001f602\U0001f602 https://t.co/0roB0QWphX
p88
aVJustin Biebers Prince comment is like when Demi lovatos said she could rap monster too
p89
aVRT @lawdog1911: NOTHING .BUT. DIMES. RT @RossGee_: Prince got a STUPID rap sheet of women bruh
p90
aVRT @HardRockJP: @Hot1015 is there a place to download the @SpindianaJones @prince mix?
p91
aVRT @CoolMelon: RIP Prince \U0001f62a https://t.co/lzhbKiViLh
p92
aVRT @_Snape_: The President of the United States met with the Half-Blood Prince, Prince George today https://t.co/Hpe6duyy6C
p93
aVRT @sexualgifs_: Prince died\u000aKylie &amp; Chyna friends\u000aKodak in Jail\u000a15 y/o girl killing over a boy\u000a30 year old HS basketball player\u000aWtf is goi\u2026
p94
aVNow my favorite Prince story is special because it's related to a tribute to my favorite Beatle George Harrison
p95
aVRT @WDRBNews: Prince once wrote a $12,000 check in a Louisville Free Public Library branch: https://t.co/YejAGvfWh4 https://t.co/CTrbAcj3vN
p96
aVRT @billboard: .@joeyBADASS performed a tribute to Prince during his #Coachella set \U0001f49c\u2764\ufe0f https://t.co/16imBqyPEX
p97
aVRT @RollingStone: "There are songs in the vault that no one's ever heard. There are several vaults." -Prince, 2014 https://t.co/QzLoqf2SnS
p98
aVRT @BigRaysShow: Eps 2 of #BigRay&amp;TheWrestlingChic ft. OkayFabe! Our tribute to Chyna &amp; Prince\u000ahttps://t.co/bir4Hhp47Y https://t.co/Yok7WdI\u2026
p99
aVRT @RollingStone: "There are songs in the vault that no one's ever heard. There are several vaults." -Prince, 2014 https://t.co/QzLoqf2SnS
p100
aVRT @Felonious_munk: Prince could only "transcend" race if you admit to believing race limits you. To transcend Blackness you'd have to see\u2026
p101
as.