(dp0
I0
(lp1
VDMK gains 2 allies in push and pull for Muslim support - The Indian Express: The Indian Express DMK\u2026 https://t.co/2prPFwvsgT #Muslim #Islam
p2
aVRT @SaltSonicSamuel: Dmk never fails to put a smile on my face\U0001f60a\U0001f495
p3
aVSee you again #alone (@ Don Mueang International Airport (DMK) \u0e17\u0e48\u0e32\u0e2d\u0e32\u0e01\u0e32\u0e28\u0e22\u0e32\u0e19\u0e14\u0e2d\u0e19\u0e40\u0e21\u0e37\u0e2d\u0e07) https://t.co/zeDItTCdtR https://t.co/1IJglSRL3F
p4
aVRT @SaltSonicSamuel: Dmk never fails to put a smile on my face\U0001f60a\U0001f495
p5
aVRT @SaltSonicSamuel: Dmk never fails to put a smile on my face\U0001f60a\U0001f495
p6
aVDmk never fails to put a smile on my face\U0001f60a\U0001f495
p7
aV@xhisa12 lol hes a character from fate/grand order based on Arjuna from the mahabharata
p8
aV1 new unfollower and 2 new followers (hello! hello!) in the last day. Via https://t.co/5796CBlBOH
p9
aVI'm at Don Mueang International Airport (DMK) \u0e17\u0e48\u0e32\u0e2d\u0e32\u0e01\u0e32\u0e28\u0e22\u0e32\u0e19\u0e14\u0e2d\u0e19\u0e40\u0e21\u0e37\u0e2d\u0e07 in Don Mueang, Bangkok w/ @sephun_ https://t.co/mShWYYLeob
p10
aVRT @ImBharathan: No opinion poll so Far has Stated #Admk govt will lose #2016elections. However some paid medias are pretending #DMK are st\u2026
p11
aVRT @hail_yeahx2: leftist logic:\u000a\u000aCEO's make millions and they're greedy. Musicians make millions and they "finally made it."
p12
aVmy booty getting small \U0001f629\U0001f629
p13
aVonce more is all I need \U0001f4af\U0001f644
p14
aVjust got hip lmao
p15
aVDon't worry, @cmsall, you can rest easy knowing DMK isn't as good as he used to be. #NightOfTheComet #80s #Horror https://t.co/i7GuCeHMyP
p16
aV@kana_dmk np have fun! i hope the artist's block goes away
p17
aVThis is too much. BJP has to stop becoming another Congress/DMK/AIADMK. BJP is in power due to its workers https://t.co/0gg4CARZ0u
p18
aVI'm at Don Mueang International Airport (DMK) \u0e17\u0e48\u0e32\u0e2d\u0e32\u0e01\u0e32\u0e28\u0e22\u0e32\u0e19\u0e14\u0e2d\u0e19\u0e40\u0e21\u0e37\u0e2d\u0e07 in Don Mueang, Bangkok https://t.co/S6Lq3Ruu7I
p19
aVI'm at Don Mueang International Airport (DMK) \u0e17\u0e48\u0e32\u0e2d\u0e32\u0e01\u0e32\u0e28\u0e22\u0e32\u0e19\u0e14\u0e2d\u0e19\u0e40\u0e21\u0e37\u0e2d\u0e07 in Don Mueang, Bangkok https://t.co/EHranYfESA
p20
aVcan't nobody get it wetter , yeah we all know you hit it better \U0001f914
p21
aV#NP DMK - Love The Way You Love (Official Music Video) https://t.co/fAoUkSzAEC via @YouTube
p22
aVRT @bvbytink: you just can't tell everyone your business .
p23
aVI'm at Don Mueang International Airport (DMK) \u0e17\u0e48\u0e32\u0e2d\u0e32\u0e01\u0e32\u0e28\u0e22\u0e32\u0e19\u0e14\u0e2d\u0e19\u0e40\u0e21\u0e37\u0e2d\u0e07 in Don Mueang, Bangkok https://t.co/uHEg2N8EcW
p24
aVback in a situation \U0001f644\U0001f644
p25
aVwhen you starting to regret shit \U0001f602 man I do not need this
p26
aVRT @TheSnipeingCali: I have departed from @DMKClan Left on my own terms no hate. Good Luck DMK.
p27
aVDMK gains 2 allies in push and pull for Muslim support https://t.co/wc50IivAt8 https://t.co/fEbkmWUR04
p28
aVPMK has spent un imaginable amt of money for this election followed by DMK &amp; ADMK !! \u000a\u000aOnly party to follow code of conduct is MNK / NTK !!
p29
aVDMK gains 2 allies in push and pull for Muslim support - The Indian Express https://t.co/YXQ4q4rM5Y
p30
aVRT @Kei__CharM: I love bacon and orange sodaaaa \U0001f60d
p31
aVtrue.  https://t.co/HuN64EJMlP
p32
aVI'm at Don Mueang International Airport (DMK) \u0e17\u0e48\u0e32\u0e2d\u0e32\u0e01\u0e32\u0e28\u0e22\u0e32\u0e19\u0e14\u0e2d\u0e19\u0e40\u0e21\u0e37\u0e2d\u0e07 in Don Mueang, Bangkok https://t.co/UszXJmNzSa
p33
aVI can't have everything I want. you win some you lose some \U0001f644
p34
aVto be \U0001f4af... I miss it all
p35
aVDMK gains 2 allies in push and pull for Muslim support - The Indian Express https://t.co/I7Tk5yIh93
p36
aVRT @safeldino: Have you heard \u2018Tyler L&amp;#x27;As - DMK CREW (Prod. By AFOX Beats)\u2019 by DMKENTERTAINMENT on #SoundCloud? #np https://t.co/kq1in\u2026
p37
aVDMK gains 2 allies in push and pull for Muslim support https://t.co/oqkFWBDq5T #news #India https://t.co/Jg2qJuheLE
p38
aVMark Passio On Total Non Participation With The System https://t.co/mnKSyHoSYz https://t.co/Uc4Y4dIkIx
p39
aVIt's my birthday \U0001f49c\U0001f49c https://t.co/YlQY2kjQk9
p40
aV(C)rewind of from 1947 the behaviour of dmk,a(dmk) in public., ok @mkstalin @kalaignar89? cc-@RashtrapatiBhvn @SrBachchan
p41
aV(C)how you @kalaignar89 @mkstalin feeling? So dmk,a(dmk) speeches in public meetings is all in good behaviour? cc-@RashtrapatiBhvn
p42
aVOn my way to DMK airport..KL bound..good morning Thailand...
p43
aV@mkstalin \u000aI heard DMK going to include my NEW CHENNAI new city project in #Manifesto2016 #INDIA\u000aAr.UK.Bhoobalan-Samathuvapura, conceptor
p44
aV@abananaleaf thanks!!! &gt;_&lt;//////
p45
aVAs long as. Cooperation's exists. Politicians will never have full power to change anything  https://t.co/32KshEE7iA
p46
aVRT @NandiDylan: Run Manchester United fans are here\U0001f602\U0001f602\U0001f602\U0001f602\U0001f602 https://t.co/tS2ddsiqyh
p47
aV@kana_dmk of course you can! i feel honored that you would want to
p48
aVPlay Piano in 30 Days! Check out the free video https://t.co/4XhSWjg9Ei #musicproducers #playpiano https://t.co/hgBpd2SJzH
p49
aV@abananaleaf Its ok if you dont want to though! (also I dont promise anything cause my art block is pretty strong orz)
p50
aV@abananaleaf I wanna ask a question! Is it ok to sketch scenes of your uo fics? Im having a block and I would like to try doing it.
p51
aVDMK gains 2 allies in push and pull for Muslim support...\u000aRead More: https://t.co/9lULafU7nY https://t.co/p5egxyPiVh
p52
aVRT @BBCAfrica: Kalusha Bwalya has lost his position as Football Association of #Zambia president after being defeated by businessman Andrew\u2026
p53
aV@kana_dmk yeah??? not to mention karasuno didn't have an ace OR a libero then lmao
p54
aV@ushijima_ebooks remember how well seijou made after oikawa joined them during training battle against karasuno compared to before oikawa
p55
aV@zerojima im betting i havent read some so thankyou!!
p56
aV@kana_dmk it is not on ao3, but just want to share in case you haven't seen it hehe _(:3_
p57
aV@zerojima I have read lots but recently not so many so I might have missed!
p58
aV@kana_dmk ALSO DID YOU READ MAIA'S TUMBLR FICS https://t.co/CXYpk5tQ1H
p59
aVRT @kiidcamo: i hate slow replies \U0001f634 that shit just make me lose interest in talking
p60
aVRT @Therealqua815: if a girl cares about you she'll get upset over little things and if you can't handle that, go for a hoe that doesn't ca\u2026
p61
aVRT @itrapful: if you care about me, act like it
p62
aVRT @tnelectionnews: #MMK, #SDPI invite #DMDK to join #DMK -led alliance https://t.co/uM9esnI4fC https://t.co/Qjg2L3lf05
p63
aV#3Novices : DMK gains 2 allies in push and pull for Muslim support March 21, 2016 at 06:55AM https://t.co/n6BRl7m9bM #News #Hyderabad #Onl\u2026
p64
aVDMK gains 2 allies in push and pull for Muslim support {indianexpress} https://t.co/ohPsEs09Rf
p65
aVSCO297 arrived at WSSS/SIN from VTBD/DMK https://t.co/aetRl4lpxO #flightaware
p66
aVRT @skudded: im too old for "crushing". if i see something i want, i just gotta get it
p67
aVDMK gets support from smaller parties\u000a\u000aThe Opposition DMK in Tamil Nadu, which could not secure the poll tie-up wi\u2026 https://t.co/YArd0LcREy
p68
aVreally hate when she do that shit
p69
aVThis Awesome Tee only for You :D @DMK_17 https://t.co/2BejdhT94k
p70
aV@EVKSElangovan @khushsundar @crkesavan @jab9777 @TN_PCC sir irrespective of politics would congress or dmk have cleaned up che in one week
p71
aVI'm at Don Mueang International Airport (DMK) \u0e17\u0e48\u0e32\u0e2d\u0e32\u0e01\u0e32\u0e28\u0e22\u0e32\u0e19\u0e14\u0e2d\u0e19\u0e40\u0e21\u0e37\u0e2d\u0e07 in Don Mueang, Bangkok https://t.co/QNiHmP4PwP
p72
aVI'm at Don Mueang International Airport (DMK) \u0e17\u0e48\u0e32\u0e2d\u0e32\u0e01\u0e32\u0e28\u0e22\u0e32\u0e19\u0e14\u0e2d\u0e19\u0e40\u0e21\u0e37\u0e2d\u0e07 in Don Mueang, Bangkok https://t.co/Z9iGduaEbl
p73
aVI have departed from @DMKClan Left on my own terms no hate. Good Luck DMK.
p74
aV@KyleMilnamow @Ryan_Swartz7 @90yehafnairb @JoeStace05 @Curtisswartz24 just ate DMK and I think it's about to give me diarrhea
p75
aVRT @VDPAssociates: Tamil Nadu mega Opinion Poll. Seat Share Projections #TN2016\u000aAIADMK+ 143\u000aDMK+ 82\u000aOthers-9\u000aAmma Returns as next CM https:\u2026
p76
aVI SUPPORT DMK WHY: 5: https://t.co/HYARSQViCt via @YouTube
p77
aVthis weekend ? https://t.co/895apc3nV0
p78
aVshould have a good half week of school
p79
aVpussy so wet that I can scuba diveeee
p80
aVI liked a @YouTube video https://t.co/VYl03LusBE DMK - Vulgar (Remix Trap Music) 2016
p81
aV@verlierst PLEASE ////////////////////////
p82
aVI'd really eat that for the rest of my life if I had to
p83
aVI want some sushi so bad
p84
aVI SUPPORT DMK WHY :4: https://t.co/nCtGHMLb3b via @YouTube
p85
aVI SUPPORT DMK WHY : 3: https://t.co/5UYAaKBdKi via @YouTube
p86
aVI'm about to start being rude as fuck. cause obviously I'm too nice
p87
aVI hate a petty irrelevant bitch like bitch gone. live yo life.
p88
aVFriday was \U0001f60d\U0001f60d\U0001f4af\U0001f4af
p89
aVRT @UncleMook_: I want some Bucharest lowkey
p90
aVRT @kamaljii: #Election2016 Debate \u000a\u000aTrue Fact said by a Guy, pls watch ... \u000a\u000a#Amma Govt #AIADMK Law &amp; Order much better than DMK https://t\u2026
p91
aVRT @VDPAssociates: Tamil Nadu mega Opinion Poll. Seat Share Projections #TN2016\u000aAIADMK+ 143\u000aDMK+ 82\u000aOthers-9\u000aAmma Returns as next CM https:\u2026
p92
aVI SUPPORT DMK WHY: 2: https://t.co/1T2R0Ai8Kw via @YouTube
p93
aVRT @ImBharathan: No opinion poll so Far has Stated #Admk govt will lose #2016elections. However some paid medias are pretending #DMK are st\u2026
p94
aVif he do that I'll be the happiest little mf on earth \U0001f62d\U0001f4af
p95
aVNo opinion poll so Far has Stated #Admk govt will lose #2016elections. However some paid medias are pretending #DMK are still in the race.
p96
aVI SUPPORT DMK WHY :1: https://t.co/f2ivjfoD1B via @YouTube
p97
aVRT @verge: Sony\u2019s futuristic Project N headphones don\u2019t touch your ears https://t.co/zWPftNhJGA https://t.co/pqgYRP7VFK
p98
aV@kana_dmk not annoying! Omg I didn't know... If I had known I would've worked on the doc sooner hahahahuhu
p99
aV@noconversion @RatanSharda55 DMK &amp; AIADMK basically abuse Hindus,misuse and damage temples,allow conversion,they are enemy of Hindus
p100
aVRT @kamaljii: #Election2016 Debate \u000a\u000aTrue Fact said by a Guy, pls watch ... \u000a\u000a#Amma Govt #AIADMK Law &amp; Order much better than DMK https://t\u2026
p101
as.