(dp0
I0
(lp1
ViPhone 6se I'm liking this one Apple \U0001f44c\U0001f44d\U0001f44a
p2
aVWill the next iPhone be the 6SE instead of 7?
p3
aVRT @Jaintleman_: Girls don't go for less than 5 inch. So iPhone 6SE is a fail. \U0001f648 #AppleEvent
p4
aVRT @Tomidivide: The new iPhone 6se looks smart.
p5
aVwhy is Apple making an  iPhone 6SE ? \U0001f62d
p6
aV@TChanaH meh, I think Apple is now fucking up with their naming scheme. Why didn't they name their new iPhone 6SE or iPhone 6 mini?
p7
aVHey @verizon not to rush you....but I need the new iPhone 6SE. \U0001f601\U0001f601 I've held onto my 5S just for this...so yeah...rush\u000a\u000aPlease and thank you.
p8
aVRT @Jaintleman_: Girls don't go for less than 5 inch. So iPhone 6SE is a fail. \U0001f648 #AppleEvent
p9
aVRT @Jaintleman_: Girls don't go for less than 5 inch. So iPhone 6SE is a fail. \U0001f648 #AppleEvent
p10
aVI'm getting the iPhone 6SE.
p11
aVRT @Jaintleman_: Girls don't go for less than 5 inch. So iPhone 6SE is a fail. \U0001f648 #AppleEvent
p12
aVGirls don't go for less than 5 inch. So iPhone 6SE is a fail. \U0001f648 #AppleEvent
p13
aV"Omg man we should like just re release the iPhone 5 and call it the 6SE, haha people would totally buy that" #AppleKeynote #AppleEvent
p14
aVRT @erickmramz: I knew the new iPhone SE wasn't great by just seeing the presenter shirt.\u000aIPHONE 6SE IS BASICALLY A IPHONE 5S https://t.co/\u2026
p15
aVRT @hjnilsson: That the #iPhone 6se lacks 3D Touch will set back adoption years, considering it's now the entry-level device. #AppleEvent
p16
aVThat the #iPhone 6se lacks 3D Touch will set back adoption years, considering it's now the entry-level device. #AppleEvent
p17
aVI knew the new iPhone SE wasn't great by just seeing the presenter shirt.\u000aIPHONE 6SE IS BASICALLY A IPHONE 5S https://t.co/sPiWwDP5xl
p18
aVRT @lamayouness: New iphone is called "6SE"? \u000a......\u000aLa2 6LS
p19
aVRT @Tomidivide: The new iPhone 6se looks smart.
p20
aV#applevent iphone s3 priced @30000 in india check for more details &gt;&gt;https://t.co/MApxZYf9Tm https://t.co/6UVbuWGQWc
p21
aVThere ain't gonna be a iphone 7 but a iphone 6SE  https://t.co/TunZcqVaRr
p22
aVRT @lamayouness: New iphone is called "6SE"? \u000a......\u000aLa2 6LS
p23
aVNiggas already putting the iPhone 6SE in the android group, standards.
p24
aVThe new iPhone 6se looks smart.
p25
aVForm factor isn't the reason they made the smaller iPhone 6SE, price is.
p26
aVRT @lamayouness: New iphone is called "6SE"? \u000a......\u000aLa2 6LS
p27
aVRT @lamayouness: New iphone is called "6SE"? \u000a......\u000aLa2 6LS
p28
aVRT @lamayouness: New iphone is called "6SE"? \u000a......\u000aLa2 6LS
p29
aVRT @lamayouness: New iphone is called "6SE"? \u000a......\u000aLa2 6LS
p30
aVNew iphone is called "6SE"? \u000a......\u000aLa2 6LS
p31
aVIphone 6SE
p32
aVCan't wait until the next Apple event where they unveil the iPhone Mini 6SE, the iPad Nano 5.3, and five sizes of Apple Watch slap bands.
p33
aVLMFAOOOOO IPHONE 6SE????????
p34
aV@LFCameron7 also the se is weird. The naming. What will the next version be called? iPhone SE2? Should've been 6SE.
p35
aVI would buy the iPhone 6SE
p36
aVI don't see the point of the iPhone 6se
p37
aVnew iPhone 6se same as 5s design with 6s features but without 3D TOUCH \u000a#apple #iphone #technology
p38
aVThe iPhone 6SE is ugly. It leaked ages ago but I was hoping they'd change it bc \U0001f636\U0001f480
p39
aVI guess I got the first ever iPhone 6SE back in 2012... \U0001f914 #iPhoneSE #iPhone5 #AppleEvent https://t.co/FwKdF6VpIr
p40
aVSteve Jobs smiling down from heaven.  His last phone design gets new life. Wanted to keep size smaller. iPhone 6SE https://t.co/GZsIy4RZDG
p41
aVAn iphone 6SE would have made more sense IMO
p42
aViPhone 6se = iPhone 5s body+ iPhone 6s spec \u000aApple loosing imagination #AppleKeynote
p43
aVI want trade my iPhone 6s straight across for a 6SE.
p44
aVNew iPhone 6SE starting 399$. #KeynoteApple
p45
aVWELCOME ~ this is APPLE in 2005 ~ 4" iPhone 6SE
p46
aVLol so many people kicking off that the new iphone 6se is smaller cuz 'everyone wants a big phone' guess what I didn't!!
p47
aVIPHONE 6SE IS BASICALLY A IPHONE 5S https://t.co/0WwjdIeWWK
p48
aVNo force touch in iPhone 6se ??? #appleevent
p49
aVSo can I trade my iPhone 6 for an iPhone 6se? I just got my current phone in Oct. \u000a\u000a&lt;goes to look for contract details\u2026&gt;
p50
aVNew Iphone will cost 399.99 it will be 6se.. This is the word of the https://t.co/mfo0t6t2Fq. It will come out next week
p51
aVApple recipe to success:\u000a1. Take iPhone 5s\u000a2. Change nothing (only color)\u000a3. Install A9 processor\u000a4. Name it iPhone 6SE\u000a\u000aEarn billions $$$$
p52
aVI never thought that leaks were as accurate as they are thought to be. There really is an iPhone 6SE?
p53
aVIphone 6SE https://t.co/oyem6X9Kcf
p54
aV#AppleKeynote iphone 6se great product for China
p55
aViPhone 6SE offers 0% better performance than the 6S. One round of applause please.
p56
aVCPU performance in iPhone 6SE https://t.co/htbvU6zloT
p57
aVSamsung takes a shot at iPhone 6SE https://t.co/bUzJfCSnq4
p58
aViPhone 6SE is iPhone 5s with iPhone 6 colours, Touch ID, iPhone 6S chipset and 3D Touch.
p59
aViPhone 6SE . . I'm listening Timmy Cook!
p60
aVIntroducing iPhone 6SE https://t.co/eWoLTUJiXN
p61
aVNew iPhone 6se small 4inch iPhone \u2764\ufe0f!!!!! @AppleSupport #apple #iphone6se https://t.co/Npd39M946P
p62
aViPhone 6se!!!!
p63
aViPhone 6SE, will be 4 inches
p64
aVNOOOOOOOOW, iphone 6se
p65
aVi heard you can get the new iphone 6se for free if you submit to a background check and blood sample
p66
aV@jermainemontiel hopefully announcing the alleged iPhone 6SE (size of iPhone 5 but all 6 hardware). I refuse to upgrade bc they're too big
p67
aVIPHONE 6SE \u000aS\u000aI\u000aS
p68
aV@JatinKiDuniya Ya Iphone 6se
p69
aV#Tonite 00.00 Wib #AppleEvent\u000a\u000aExpect new iPad, iPhone 6SE, and the Release of iOS 9.3 \u000a\u000a\U0001f447\ufe0f\u2026 [pic] \u2014 https://t.co/nw6aMJqlDB
p70
aVToday is Apple\u2019s March event! Starts at 10am pacific (1pm eastern).. Expect new iPad, iPhone 6SE, and the release of iOS 9.3! (Jailbreak?)
p71
aVDeciding wether to get the iPhone 6s or the 6se
p72
aVWhat the fuck is an iPhone 6SE? Like ummm
p73
aVSoooo Apple making an iPhone 6se? The fuck bye Apple
p74
aV@joewalnes 4\u2033 iPhone 6SE, 9.7\u2033 iPad pro and new watch bands. Also the new OS releases to come out of beta
p75
aVNot that I want to buy any phone. My baby iPhone 5 is still good. Aiming for iPhone 7 instead of the rumored iPhone 6se. So be strong phone!
p76
aVApple holding a cricket-fest as they release the new or not so original Iphone 6SE with a 4" screen smaller for those who didn;t like the 6S
p77
aViPhone 6se is going to be the same size as the 5....that's dumb af come on with that 7 already \U0001f644
p78
aVso the iPhone 6Se is as big as the 5S and has the functions of the 6S except for the 3D-touch. God bless apple for making a smaller phone
p79
aV@Sycoraxic98 The 6se is just a 4" iPhone. The iPad, "Be a smaller iPad Pro" \U0001f643 They have one already \U0001f643 I think something hasn't leaked tho
p80
as.