(dp0
I0
(lp1
VRT @jandawson: Big dip in iPhone ASPs, and that\u2019s before the iPhone SE went on sale\u2026 https://t.co/idAsGgs1PA
p2
aVBrand NEW Apple iPhone SE Rose Gold 16GB AT&amp;T 1 Year Warranty https://t.co/hjiiMcBTz6 https://t.co/P4qM9SEYTP
p3
aVIphone SE caused it all  https://t.co/jd7uvdDgQR
p4
aVApple iPhone SE (Latest Model) - 16GB - Rose Gold (Verizon) Smartphone  https://t.co/eGtumfh6bh https://t.co/kLI1zjOOCl
p5
aV@Cricketnation iPhone SE compatibility with Cricket service ?
p6
aVPoll results - $AAPL\u000aThe \u2018lower\u2019 votes were right! Buy yourself an iPhone SE \u2026 https://t.co/sAKyHtyRVg
p7
aVRT @BloombergTV: Demand for iPhone SE is higher than expected, Apple CFO tells @emilychangtv https://t.co/H89WE9USD2 https://t.co/RInbe3mL1v
p8
aVRT @BloombergTV: Demand for iPhone SE is higher than expected, Apple CFO tells @emilychangtv https://t.co/H89WE9USD2 https://t.co/RInbe3mL1v
p9
aVSoul searching with the iPhone SE: an Android lover's experience: An Android-lovers first\u2026 https://t.co/8ToXX487lk
p10
aVBig dip in iPhone ASPs, and that\u2019s before the iPhone SE went on sale\u2026 https://t.co/idAsGgs1PA
p11
aVRT @BloombergTV: Demand for iPhone SE is higher than expected, Apple CFO tells @emilychangtv https://t.co/H89WE9USD2 https://t.co/RInbe3mL1v
p12
aVAn amazing run. The iPhone SE emerged just as they captured the last of the high end potential. https://t.co/EwVJ0MaIz4
p13
aVRT @jacknhacktech: JackNhack Presents THE BIG SMARTPHONE GIVEAWAY!!!!! - GALAXY S7,S7 EDGE &amp; IPHONE SE - INTERNATIONAL\u000ahttps://t.co/8eBjvr2\u2026
p14
aVOEM Original Wall Charger+Lightning Cable For Apple iPhone 5/5s/SE/5c/6/6s/Plus - Bid Now!\u2026 https://t.co/eiJ7eSvOzs https://t.co/n14zZFIuYm
p15
aVOEM Original Wall Charger+Lightning Cable For Apple iPhone 5/5s/SE/5c/6/6s/Plus - Bid Now!\u2026 https://t.co/SYwXjcGN1f https://t.co/HMlwwTgeLY
p16
aVOEM Original Wall Charger+Lightning Cable For Apple iPhone 5/5s/SE/5c/6/6s/Plus - Bid Now!\u2026 https://t.co/OAUBSyvHdu https://t.co/Qa7J5OyzGX
p17
aVOEM Original Wall Charger+Lightning Cable For Apple iPhone 5/5s/SE/5c/6/6s/Plus - Bid Now!\u2026 https://t.co/F05sO4TB2J https://t.co/eLcJJcBqO6
p18
aV$AAPL SUCKS AND IS GOING TO $88 but I do love my iPhone SE lo lolol SHIT STOCK.
p19
aVBEST DEALS : https://t.co/rmRh31FiFx #7543 For iPhone SE / 5S / 5 Wallet Case Cover Wrist Strap Credit Card ID Poc\u2026 https://t.co/ASMJioV77V
p20
aVOEM Original Wall Charger+Lightning Cable For Apple iPhone 5/5s/SE/5c/6/6s/Plus - Bid Now!\u2026 https://t.co/UdjaJkNSKL https://t.co/g9jO6HWwHd
p21
aVOEM Original Wall Charger+Lightning Cable For Apple iPhone 5/5s/SE/5c/6/6s/Plus - Bid Now!\u2026 https://t.co/gXttIvcIN9 https://t.co/8Z8clZ129h
p22
aVOEM Original Wall Charger+Lightning Cable For Apple iPhone 5/5s/SE/5c/6/6s/Plus - Bid Now!\u2026 https://t.co/uJjlJSjB7W https://t.co/BN2r7Kniv5
p23
aVbusiness: RT BloombergTV: Demand for iPhone SE is higher than expected, Apple CFO tells emilychangtv \u2026 https://t.co/EQT7hrhXoF
p24
aVOEM Original Wall Charger+Lightning Cable For Apple iPhone 5/5s/SE/5c/6/6s/Plus - Bid Now!\u2026 https://t.co/pG3VIdgAyS https://t.co/LwQeKXrJDf
p25
aVOEM Original Wall Charger+Lightning Cable For Apple iPhone 5/5s/SE/5c/6/6s/Plus - Bid Now!\u2026 https://t.co/4Fo279v73f https://t.co/pTmBZwxTAQ
p26
aVOEM Original Wall Charger+Lightning Cable For Apple iPhone 5/5s/SE/5c/6/6s/Plus - Bid Now!\u2026 https://t.co/ElOWFW6mXY https://t.co/z0c0RbfODY
p27
aVI want to win an iPhone SE from @DontHateTheGeek and @NFMTweets #DHTGiPhoneSE https://t.co/Q11nwQ5cKT
p28
aVOEM Original Wall Charger+Lightning Cable For Apple iPhone 5/5s/SE/5c/6/6s/Plus - Bid Now!\u2026 https://t.co/5vgRaOb3P3 https://t.co/YAzlTuFRGj
p29
aVPIERRE CARDIN Brown Genuine Leather Cover Hard Back Case For iPhone 5 SE 5/5s - Bid Now! O\u2026 https://t.co/FuJtc75Ayo https://t.co/kSpQCJIKTx
p30
aVBling Fashion Swan Transparent Hard Fitted Case Cover For iPhone 5 5s SE - Bid Now! Only $\u2026 https://t.co/G3N2lX7Ti0 https://t.co/237WftXVFQ
p31
aVOEM Original Wall Charger+Lightning Cable For Apple iPhone 5/5s/SE/5c/6/6s/Plus - Bid Now!\u2026 https://t.co/OoB1keLHIz https://t.co/eo8EMjxhuE
p32
aVPIERRE CARDIN Brown Genuine Leather Cover Hard Back Case For iPhone 5 SE 5/5s - Bid Now! O\u2026 https://t.co/b15qQZCSOM https://t.co/qRS5NXepiY
p33
aVLots of puts and takes on Apple's results. China 26%/Mac 12%/iPhone 16%/iPad 19% decline troubling. SE constraint, switchers positive. $APPL
p34
aV#business #Bloomberg Demand for iPhone SE is higher than expected, Apple CFO tells @emilychangtv https://t.co/XBxm1C5wwv....  @FollowNewsNow
p35
aVBling Fashion Swan Transparent Hard Fitted Case Cover For iPhone 5 5s SE - Bid Now! Only $\u2026 https://t.co/go7w30Zwsm https://t.co/bhto1PnmvZ
p36
aVPIERRE CARDIN Brown Genuine Leather Cover Hard Back Case For iPhone 5 SE 5/5s - Bid Now! O\u2026 https://t.co/nhFkBdzwfq https://t.co/KU4LqWLQpa
p37
aVBling Fashion Swan Transparent Hard Fitted Case Cover For iPhone 5 5s SE - Bid Now! Only $\u2026 https://t.co/IZpnIXAY2i https://t.co/uiaOtucdtU
p38
aVbusiness: RT BloombergTV: Demand for iPhone SE is higher than expected, Apple CFO tells emilychangtv \u2026 https://t.co/lUcP8MH8ZT
p39
aVRT @BloombergTV: Demand for iPhone SE is higher than expected, Apple CFO tells @emilychangtv https://t.co/H89WE9USD2 https://t.co/RInbe3mL1v
p40
aVAfter a week of use I am very impressed with the battery life of the iPhone SE, longer than I was getting on the 6S.
p41
aVRT @BloombergTV: Demand for iPhone SE is higher than expected, Apple CFO tells @emilychangtv https://t.co/H89WE9USD2 https://t.co/RInbe3mL1v
p42
aVOEM Original Wall Charger+Lightning Cable For Apple iPhone 5/5s/SE/5c/6/6s/Plus - Bid Now!\u2026 https://t.co/pIVFdjbGQf https://t.co/ELGvU0J9nj
p43
aV@thurrott cos iPhone SE was a pile of tut
p44
aVbusiness: RT BloombergTV: Demand for iPhone SE is higher than expected, Apple CFO tells emilychangtv \u2026 https://t.co/3kZWeqpogH
p45
aVPIERRE CARDIN Brown Genuine Leather Cover Hard Back Case For iPhone 5 SE 5/5s - Bid Now! O\u2026 https://t.co/tYt3jDcjnJ https://t.co/oUy9rQHIfN
p46
aVBling Fashion Swan Transparent Hard Fitted Case Cover For iPhone 5 5s SE - Bid Now! Only $\u2026 https://t.co/YCcF8VGIyu https://t.co/WacXxOGqty
p47
aVRT @BloombergTV: Demand for iPhone SE is higher than expected, Apple CFO tells @emilychangtv https://t.co/H89WE9USD2 https://t.co/RInbe3mL1v
p48
aVOEM Original Wall Charger+Lightning Cable For Apple iPhone 5/5s/SE/5c/6/6s/Plus - Bid Now!\u2026 https://t.co/WgTQTl2I02 https://t.co/IbGS8p3IKR
p49
aVbusiness: RT BloombergTV: Demand for iPhone SE is higher than expected, Apple CFO tells emilychangtv \u2026 https://t.co/RlBn2QTpLl
p50
aVPIERRE CARDIN Brown Genuine Leather Cover Hard Back Case For iPhone 5 SE 5/5s - Bid Now! O\u2026 https://t.co/KfLXEyEqcQ https://t.co/SHCoYOCuKY
p51
aVPIERRE CARDIN Brown Genuine Leather Cover Hard Back Case For iPhone 5 SE 5/5s - Bid Now! O\u2026 https://t.co/p9H3FVbFt9 https://t.co/CPxNCsfT6F
p52
aVBling Fashion Swan Transparent Hard Fitted Case Cover For iPhone 5 5s SE - Bid Now! Only $\u2026 https://t.co/akheza5e6L https://t.co/0S47TphbAU
p53
aVBling Fashion Swan Transparent Hard Fitted Case Cover For iPhone 5 5s SE - Bid Now! Only $\u2026 https://t.co/zrw0fti6rt https://t.co/E6EEsgIl0G
p54
aVPIERRE CARDIN Brown Genuine Leather Cover Hard Back Case For iPhone 5 SE 5/5s - Bid Now! O\u2026 https://t.co/tYt3jDcjnJ https://t.co/5GbVhoLix6
p55
aVBling Fashion Swan Transparent Hard Fitted Case Cover For iPhone 5 5s SE - Bid Now! Only $\u2026 https://t.co/YCcF8VGIyu https://t.co/XAI2lmdWU5
p56
aVOEM Original Wall Charger+Lightning Cable For Apple iPhone 5/5s/SE/5c/6/6s/Plus - Bid Now!\u2026 https://t.co/bzl4uGVHoR https://t.co/TLOpp7IdwX
p57
aVI want to win an iPhone SE from @DontHateTheGeek and @NFMTweets #DHTGiPhoneSE https://t.co/CItx96bRCS
p58
aVRightAwayFunds Shared: business: RT BloombergTV: Demand for iPhone SE is higher than expected, Apple CFO tells emi\u2026 https://t.co/QHvhnRbM2A
p59
aVOEM Original Wall Charger+Lightning Cable For Apple iPhone 5/5s/SE/5c/6/6s/Plus - Bid Now!\u2026 https://t.co/ffYKVAkedE https://t.co/W4fHjI5W6X
p60
aVPIERRE CARDIN Brown Genuine Leather Cover Hard Back Case For iPhone 5 SE 5/5s - Bid Now! O\u2026 https://t.co/chhJN4XZv9 https://t.co/fbBXRniRdV
p61
aVBling Fashion Swan Transparent Hard Fitted Case Cover For iPhone 5 5s SE - Bid Now! Only $\u2026 https://t.co/gmI8rMQA55 https://t.co/CCrINCv1hb
p62
aVPIERRE CARDIN Brown Genuine Leather Cover Hard Back Case For iPhone 5 SE 5/5s - Bid Now! O\u2026 https://t.co/6WGtASNiXH https://t.co/Xye4hbLkVR
p63
aVOEM Original Wall Charger+Lightning Cable For Apple iPhone 5/5s/SE/5c/6/6s/Plus - Bid Now!\u2026 https://t.co/YbI8xnRLmq https://t.co/wdFPX5WHaM
p64
aVBling Fashion Swan Transparent Hard Fitted Case Cover For iPhone 5 5s SE - Bid Now! Only $\u2026 https://t.co/DGgaDqadg7 https://t.co/6ImwqsEdsk
p65
aVPIERRE CARDIN Brown Genuine Leather Cover Hard Back Case For iPhone 5 SE 5/5s - Bid Now! O\u2026 https://t.co/6pRvBFbwzm https://t.co/ZU8sfjZrm7
p66
aVBling Fashion Swan Transparent Hard Fitted Case Cover For iPhone 5 5s SE - Bid Now! Only $\u2026 https://t.co/vAupwg5SNp https://t.co/1J09O0PI4i
p67
aVRT @BloombergTV: Demand for iPhone SE is higher than expected, Apple CFO tells @emilychangtv https://t.co/H89WE9USD2 https://t.co/RInbe3mL1v
p68
aVPIERRE CARDIN Brown Genuine Leather Cover Hard Back Case For iPhone 5 SE 5/5s - Bid Now! O\u2026 https://t.co/fQJc38seMF https://t.co/Ss5kj7VHAA
p69
aVBling Fashion Swan Transparent Hard Fitted Case Cover For iPhone 5 5s SE - Bid Now! Only $\u2026 https://t.co/OcKEfD9UbN https://t.co/ece1uXzxSK
p70
aViPhone SE my ass https://t.co/aAAltFs1sV
p71
aVPIERRE CARDIN Brown Genuine Leather Cover Hard Back Case For iPhone 5 SE 5/5s - Bid Now! O\u2026 https://t.co/chhJN4XZv9 https://t.co/6h5Qfvmq55
p72
aVPIERRE CARDIN Brown Genuine Leather Cover Hard Back Case For iPhone 5 SE 5/5s - Bid Now! O\u2026 https://t.co/aPeeWAdj7c https://t.co/ne4YkLt1kX
p73
aVBling Fashion Swan Transparent Hard Fitted Case Cover For iPhone 5 5s SE - Bid Now! Only $\u2026 https://t.co/4vVa3BGX9V https://t.co/yuFOQm70Uj
p74
aVBling Fashion Swan Transparent Hard Fitted Case Cover For iPhone 5 5s SE - Bid Now! Only $\u2026 https://t.co/gmI8rMQA55 https://t.co/l2pUhL2bh6
p75
aVPIERRE CARDIN Brown Genuine Leather Cover Hard Back Case For iPhone 5 SE 5/5s - Bid Now! O\u2026 https://t.co/mpN9EclLbX https://t.co/1qxWj9OXdH
p76
aVPIERRE CARDIN Brown Genuine Leather Cover Hard Back Case For iPhone 5 SE 5/5s - Bid Now! O\u2026 https://t.co/llNHF3A0pQ https://t.co/XR9pdlAX6P
p77
aVBling Fashion Swan Transparent Hard Fitted Case Cover For iPhone 5 5s SE - Bid Now! Only $\u2026 https://t.co/hinaCeY2h2 https://t.co/vEw6uDJEWE
p78
aVBling Fashion Swan Transparent Hard Fitted Case Cover For iPhone 5 5s SE - Bid Now! Only $\u2026 https://t.co/H9p37LyoDB https://t.co/LAe1oON5de
p79
aVI want to win an iPhone SE from @DontHateTheGeek and @NFMTweets #DHTGiPhoneSE https://t.co/mMzdV49Zl5
p80
aVRT @BloombergTV: Demand for iPhone SE is higher than expected, Apple CFO tells @emilychangtv https://t.co/H89WE9USD2 https://t.co/RInbe3mL1v
p81
aVRT @BloombergTV: Demand for iPhone SE is higher than expected, Apple CFO tells @emilychangtv https://t.co/H89WE9USD2 https://t.co/RInbe3mL1v
p82
aVRT @BloombergTV: Demand for iPhone SE is higher than expected, Apple CFO tells @emilychangtv https://t.co/H89WE9USD2 https://t.co/RInbe3mL1v
p83
aVDemand for iPhone SE is higher than expected, Apple CFO tells @emilychangtv https://t.co/H89WE9USD2 https://t.co/RInbe3mL1v
p84
aVChic Chevrons Pattern - Hot Pink iPhone SE/5/5s Case: \u000a\u000a           ... https://t.co/04h44QdZYP #gifts #shopping
p85
aVPlease help me win an iPhone SE from https://t.co/HmsBgFWqVC! https://t.co/VQJN93w7kH
p86
aViPhone SE Release Dates by Country: Orders Start March 24, March 29, and Early\u2026 https://t.co/NDgjFtFYWh #TeleTech
p87
aVHOT DEALS : https://t.co/ejUE9Rlrm9 For iPhone SE 5S GGMM Luxury Genuine Real Leather Flip Slim Case Cover + Scree\u2026 https://t.co/vuHb076kO9
p88
aVWhere is the new Mac Pro? Why is the iPhone SE just IPhone 5ss? Why have the macbooks basically stalled in innovation?
p89
aVGreat Deals #424 : https://t.co/O7jVRETPkY OtterBox iPhone 5 / 5S / SE Commuter Case Berry Pink Blue Cover OEM New\u2026 https://t.co/keirtkIUV2
p90
as.