(dp0
I0
(lp1
VRT @dakidemm: Go buy my single How We Ride on itunes https://t.co/Y50F075M09 https://t.co/3wZ1xh8H9H
p2
aVRT @Logic301: Purchase my sophomore album #TheIncredibleTrueStory now!\u000a\u000ahttps://t.co/L5lXQj4anO
p3
aVTI Archive: Apple Confirms the Iphone 6S and 6S Plus RAM https://t.co/OZmfl0Kp41 #6splus #apple #handset #ios #iphone6s #samsung
p4
aVRT @IndigenousXLtd: Apple, Facebook and Google Taken to Human Rights Commission over Racist Survival Island 3 App https://t.co/FksCIeTlDo #\u2026
p5
aVThe people at Sydney University and he really should have just originally gotten a legit one from Apple.
p6
aVRT @DealLavish: Apple iPhone 6 - 16GB - Black  (Unlocked) ID L0CK, good glass https://t.co/CtGx25mTRf https://t.co/gdAL9Tj6Ro
p7
aVRT @iPhoneTeam: Apple's big press event is coming tomorrow. What products do you hope for? https://t.co/HpODowznag
p8
aVA 2014 Porsche Cayenne was just scanned https://t.co/ACZACnVx3d #1millionscans #ebaymotors #apple
p9
aVI've just played Crazy Slots from @Mazooma_ available on the App Store, it was awesome! Try it now! : https://t.co/S7PHkiwjn4
p10
aVRT @astro_timpeake: Thanks Soyuz 46S crew for the fresh fruit\u2026nothing quite like a juicy apple! #Principia https://t.co/cXVUP4LJSy
p11
aVRT @justinbieber: Need that. Click that---  https://t.co/NBtt0HVjhJ
p12
aVApple bout to unveil a new IPhone tomorrow we know we don't need but will convince ourselves we somehow need it in our lives. Can't wait.
p13
aVRT @tclarkie24: seguir: to follow #palabra #spanish #learning #word  https://t.co/I4YLmDGngK https://t.co/JM6QJwZT4W
p14
aVRT @TheBaeMarcus: Broke niggas be like:\u000a"Just copped the Apple Watch! \u231a\ufe0f" https://t.co/lLUxQvdHtM
p15
aVRT @TobyHater: Can I give you some advice? A little cover up on your Adam's apple will make it appear smaller, and make you look less like \u2026
p16
aVApple iPad Air 2 16GB 2nd Generation HD Retina Display Wi-Fi 9.7" Gold - NEW - Buy It Now!\u2026 https://t.co/uOhjLBpuTh https://t.co/DFqJ5GM0BW
p17
aVlove u @ArianaGrande #BuyDangerousWomanOniTunes https://t.co/zrxsZhMHFA
p18
aVApple Ipad Air 128gb Space Grey Wifi Slightly Used Excellent Condition - Bid Now! Only $19\u2026 https://t.co/Agz9xa3v1W https://t.co/4r31EZCqtr
p19
aVRT @TheBaeMarcus: Broke niggas be like:\u000a"Just copped the Apple Watch! \u231a\ufe0f" https://t.co/lLUxQvdHtM
p20
aVHey, check out this game, GyroSphere Trials! https://t.co/w9VyiHXtPq
p21
aVNEW on EBAY: APPLE IPHONE 6 128GB SILVER UNLOCKED https://t.co/0jZtlGkE2z https://t.co/lr2Wh4AU23
p22
aVRT @TheWesternSons: DEBUT ALBUM AND MUSIC VIDEO OUT NOW! \U0001f37b\U0001f37b\U0001f37b\U0001f37b\u000a\u000aVideo: https://t.co/PaNsmdJW1c\u000a\u000aAlbum: https://t.co/0Fhr60KJhq https://t.co/\u2026
p23
aVApple iPad mini 2 32GB, Wi-Fi + 4G (O2), 7.9in - Silver - Buy It Now! Only $190.0 https://t.co/7ddOmkNDCF https://t.co/i5XycxobNl
p24
aV@bradley2287 Hey, Join over 250,000 sneaker heads on this app https://t.co/xjj6yVBZej https://t.co/6zLZwnguYb
p25
aVDecorate your heart out when you clear open space in your #SmurfsVillage  with the Smurfy Wonder Storage!  https://t.co/VQaTjAmzz8
p26
aVApple iPad 2 ***SOLD***  - Bid Now! Only $70.0 https://t.co/kerXOBLH2F https://t.co/2dR4n2FycR
p27
aVRT @hopevista: Guys! Please check out my band @ThisIsVISTA's new single! Click the link to support, it would mean da world:) https://t.co/s\u2026
p28
aV$APPL A new tablet strategy is needed. via @SeekingAlpha https://t.co/QtaVSof1FN #Apple Embrace content consumption.
p29
aVListen to Juicy Wiggle (128 Workout Remix) by Boyz Boyz Boyz on @AppleMusic. https://t.co/gp5oKO8mJw
p30
aVQuiche and apple pie, BAM! That's what's for dinner tonight \U0001f601\U0001f60e\u000a#foodie #foodgasm #foodporn\u2026 https://t.co/Kf17TPmya0
p31
aV#iphone #apple Deals https://t.co/Apd9D816qF #2827 New Jammin IROCKER All In One Electronic Drum Set for iPod/iPho\u2026 https://t.co/0Ux6lqptpS
p32
aVI wonder if this is an automated email they send to everyone? Imagine getting a job at #apple or #google ?! https://t.co/6au2bmSVRK
p33
aVRT @tomhanks: What a record! Hanx @RitaWilson https://t.co/4rLggP2Taq
p34
aV#WorkFromHome feat. @tydollasign on @AppleMusic.\u000ahttps://t.co/U3nG1nC3nz https://t.co/Olt0jLX7eC  \U0001f499\U0001f499
p35
aV#iphone #apple Deals https://t.co/8nVTJfvAXb #0151 Lot of 176 Apple iPhone 5s/5c/5 BAD LCD-broken glass, READ DESC\u2026 https://t.co/9wKrEoSpj2
p36
aVbuy 'dangerous woman' by @ArianaGrande on itunes\u000a\u000ahttps://t.co/VevOKspdFZ \u000a\u000a#BuyDangerousWomanOniTunes
p37
aV#iphone #apple Deals https://t.co/gVsj4MOLtT #0056 Apple IPhone 6 16GB Gray/Black- Sprint Clean ESN #90246-1 https://t.co/b6zPdMN88d
p38
aVRT @DENISEVASQUEZ: Like I sing in my song  I'm Back On Track! Listen #Music by Denise Vasquez on @AppleMusic  https://t.co/DpFPHyfBo8
p39
aVRT @GrowthHackLife: Home made Apple Watch #funny #AppleWatch https://t.co/ukdXqUnwR0
p40
aVJapan Free 81. PicGIF Lite - PearlMountain Technology Co., Ltd  https://t.co/2S6MtSsouo  #mac  #apple  8383
p41
aVSee who views your instagram profile most likely with InstaView iPhone and Android app.. @instaviewapps https://t.co/RFc2oTqGlX
p42
aVRT @ninadobrev: Style a beach party look for me in styling app @CovetFashion. Download the app https://t.co/a5kcFP3ca6 now! https://t.co/Sy\u2026
p43
aVGirl Getting Hit With An Apple Vine Compilation || ...\u000aFULL VIDEO HERE: https://t.co/qPye6cbOfg\u000atubv ... - #tubvid https://t.co/UlYBopaJiT
p44
aV#iphone #apple Deals https://t.co/0eqorYuVIN #8099 Apple iPhone 6 16gb White Unlocked Verizon, AT&amp;T, Sprint, T-Mob\u2026 https://t.co/hjwZEBtcjP
p45
aVRT @ArianaGrande: #BeAlrightTonight \u000a--&gt; https://t.co/X1TBDlUe50 \u2601\ufe0f\u000anew song from #DangerousWoman tonight 9pm pst / midnight est https://t.\u2026
p46
aV@Kickswings9092 @GabeGabereber Hey, Join over 250,000 sneaker heads on this app https://t.co/acK46CFZZX https://t.co/rE2TOoNlae
p47
aV#iphone #apple Deals https://t.co/MhkBRHWXgv #3146 Lot of 8 OEM iPhone 6 - 4.7" GOOD Screen LCD &amp; Digitizer-Glass \u2026 https://t.co/hxvuEpOuew
p48
aVI scored 24 points in #Stack\u000ahttps://t.co/2VZeIODwpg https://t.co/lMvgPQ355T
p49
aVmy apple music expires today. let me watch the 1989 world tour again
p50
aVRT @LeeloSoftware: We can't wait for the new season to start ! Leelo News Tracker worldwide free forever @AppStore https://t.co/bQ6kb7LvNO \u2026
p51
aVHey, check out this game, GyroSphere Trials! https://t.co/0lMwmPLg62
p52
aV3 users just unfollowed me. Via @FindUnfollower https://t.co/lMH38tl5Fq. #iPhone #App
p53
aV@SchadenJake I'm not a cider fan but I found it to be well worth the 99 cent investment. Tastes like liquid apple pie.
p54
aV#iphone #apple Deals https://t.co/UaRyAkKjHH #2805 iPhone 5, Samsung S4, Button(s), Display: LCD Screen, Replaceme\u2026 https://t.co/8NxxEq0eo3
p55
aVPlace Builder Smurfs new Mountain Hut to give your #SmurfsVillage staircases a smurfy makeover. https://t.co/Jl4EpRSSyl
p56
aV#iphone #apple Deals https://t.co/3v30JGfQUm #4840 White LCD Display +Touch Screen  Replacement for iPhone 6s Plus\u2026 https://t.co/AESvQcQzou
p57
aVRT @LakersNation: Win two tickets to Kobe\u2019s final game!\u000a\u000aTo enter:\u000a1. RT this tweet\u000a2. Download @TiqIQ\u2019s app:\u000ahttps://t.co/ME7ZoI3MgI https\u2026
p58
aVDangerous Woman by @ArianaGrande \U0001f495 https://t.co/eCTroRRcwm #BuyDangerousWomanOniTunes
p59
aV#BuyDangerousWomanOniTunes by @ArianaGrande if you want to be bald &amp; scalped. https://t.co/UgK16EuzTu https://t.co/fWLjA6LCHb
p60
aVRT @JimmiiMontana: Listen to Ridah - Single by Jimmii Montana on @AppleMusic &amp; #GooglePlay  https://t.co/x6iEpipA41
p61
aV#iphone #apple Deals https://t.co/HuMcyexrUU #5121 Bakelite Frame Laminator Machine Laminating Machine for iPhone \u2026 https://t.co/sSe1r87DWl
p62
aVRecipe number 1 with apple butter...scones! Currently cooling but I\u2026 https://t.co/UJGBqfaGhx
p63
aVListen to Here Comes the Sun by The Beatles on @AppleMusic. https://t.co/VyB57BPboh
p64
aV#iphone #apple Deals https://t.co/rxj0RLhhHL #0043 OEM Original Black Touch Digitizer LCD Screen Assembly for iPho\u2026 https://t.co/EQUANtfnq4
p65
aVApple Mac Mini A1283 for PARTS /REPAIRS https://t.co/EvLtE0cJqA https://t.co/ABMhgPfqaF
p66
aV*Perfect* Apple iMac w/Wireless Keyboard &amp; Magic Mouse **12 GB Ram for Speed** https://t.co/pl74pKcnka https://t.co/EMdEsULPzA
p67
aVRT @antoniodelotero: 25. my fuckin cinnamon apple https://t.co/hkfDrmiYXT
p68
aVRT @laurenlundberg: wow apple music is actually such a blessing
p69
aV*Perfect* Apple iMac w/Wireless Keyboard &amp; Magic Mouse **12 GB Ram for Speed** https://t.co/66rcUzXLAC https://t.co/wmYLu2bjYl
p70
aV\U0001f4f1\U0001f4f1\u2b508879 Sold- Apple #iPhone5s 16GB Factory Unlocked #Smartphone Gold/Silver/Gray #iPhone\u2026 https://t.co/IaB829J9Ti https://t.co/d4Yp71T4jT
p71
aV#WVMIP: Look who is most interested in you: download from https://t.co/UpRHE0rf2p https://t.co/RyIlskwjnO.twitter https://t.co/FYQupM2HsI
p72
aV#Apple Prepares to Unveil Smaller iPhone With Narrower Ambitions $AAPL  https://t.co/0LJqZhe9Bz
p73
aV@thedandylione If you love sneakers and streetwear download this app https://t.co/3BRAEiqaho https://t.co/R05yw0iA6a
p74
as.