(dp0
I0
(lp1
VRT @ImBharathan: No opinion poll so Far has Stated #Admk govt will lose #2016elections. However some paid medias are pretending #DMK are st\u2026
p2
aVRT @ImBharathan: No opinion poll so Far has Stated #Admk govt will lose #2016elections. However some paid medias are pretending #DMK are st\u2026
p3
aVNo opinion poll so Far has Stated #Admk govt will lose #2016elections. However some paid medias are pretending #DMK are still in the race.
p4
as.