(dp0
I0
(lp1
VRT @dakidemm: Go buy my single How We Ride on itunes https://t.co/Y50F075M09 https://t.co/3wZ1xh8H9H
p2
aVRT @Logic301: Purchase my sophomore album #TheIncredibleTrueStory now!\u000a\u000ahttps://t.co/L5lXQj4anO
p3
aVTI Archive: Apple Confirms the Iphone 6S and 6S Plus RAM https://t.co/OZmfl0Kp41 #6splus #apple #handset #ios #iphone6s #samsung
p4
aVRT @IndigenousXLtd: Apple, Facebook and Google Taken to Human Rights Commission over Racist Survival Island 3 App https://t.co/FksCIeTlDo #\u2026
p5
aVThe people at Sydney University and he really should have just originally gotten a legit one from Apple.
p6
aVRT @DealLavish: Apple iPhone 6 - 16GB - Black  (Unlocked) ID L0CK, good glass https://t.co/CtGx25mTRf https://t.co/gdAL9Tj6Ro
p7
aVRT @iPhoneTeam: Apple's big press event is coming tomorrow. What products do you hope for? https://t.co/HpODowznag
p8
aVI've just played Crazy Slots from @Mazooma_ available on the App Store, it was awesome! Try it now! : https://t.co/S7PHkiwjn4
p9
aVRT @astro_timpeake: Thanks Soyuz 46S crew for the fresh fruit\u2026nothing quite like a juicy apple! #Principia https://t.co/cXVUP4LJSy
p10
aVRT @justinbieber: Need that. Click that---  https://t.co/NBtt0HVjhJ
p11
aVApple bout to unveil a new IPhone tomorrow we know we don't need but will convince ourselves we somehow need it in our lives. Can't wait.
p12
aVRT @tclarkie24: seguir: to follow #palabra #spanish #learning #word  https://t.co/I4YLmDGngK https://t.co/JM6QJwZT4W
p13
aVRT @TheBaeMarcus: Broke niggas be like:\u000a"Just copped the Apple Watch! \u231a\ufe0f" https://t.co/lLUxQvdHtM
p14
aVRT @TobyHater: Can I give you some advice? A little cover up on your Adam's apple will make it appear smaller, and make you look less like \u2026
p15
aVApple iPad Air 2 16GB 2nd Generation HD Retina Display Wi-Fi 9.7" Gold - NEW - Buy It Now!\u2026 https://t.co/uOhjLBpuTh https://t.co/DFqJ5GM0BW
p16
aVlove u @ArianaGrande #BuyDangerousWomanOniTunes https://t.co/zrxsZhMHFA
p17
aVApple Ipad Air 128gb Space Grey Wifi Slightly Used Excellent Condition - Bid Now! Only $19\u2026 https://t.co/Agz9xa3v1W https://t.co/4r31EZCqtr
p18
aVRT @TheBaeMarcus: Broke niggas be like:\u000a"Just copped the Apple Watch! \u231a\ufe0f" https://t.co/lLUxQvdHtM
p19
aVHey, check out this game, GyroSphere Trials! https://t.co/w9VyiHXtPq
p20
aVApple iPad mini 2 32GB, Wi-Fi + 4G (O2), 7.9in - Silver - Buy It Now! Only $190.0 https://t.co/7ddOmkNDCF https://t.co/i5XycxobNl
p21
aV@bradley2287 Hey, Join over 250,000 sneaker heads on this app https://t.co/xjj6yVBZej https://t.co/6zLZwnguYb
p22
aVDecorate your heart out when you clear open space in your #SmurfsVillage  with the Smurfy Wonder Storage!  https://t.co/VQaTjAmzz8
p23
aVApple iPad 2 ***SOLD***  - Bid Now! Only $70.0 https://t.co/kerXOBLH2F https://t.co/2dR4n2FycR
p24
aVRT @hopevista: Guys! Please check out my band @ThisIsVISTA's new single! Click the link to support, it would mean da world:) https://t.co/s\u2026
p25
aV$APPL A new tablet strategy is needed. via @SeekingAlpha https://t.co/QtaVSof1FN #Apple Embrace content consumption.
p26
aVListen to Juicy Wiggle (128 Workout Remix) by Boyz Boyz Boyz on @AppleMusic. https://t.co/gp5oKO8mJw
p27
aVQuiche and apple pie, BAM! That's what's for dinner tonight \U0001f601\U0001f60e\u000a#foodie #foodgasm #foodporn\u2026 https://t.co/Kf17TPmya0
p28
aVI wonder if this is an automated email they send to everyone? Imagine getting a job at #apple or #google ?! https://t.co/6au2bmSVRK
p29
aVRT @tomhanks: What a record! Hanx @RitaWilson https://t.co/4rLggP2Taq
p30
aV#WorkFromHome feat. @tydollasign on @AppleMusic.\u000ahttps://t.co/U3nG1nC3nz https://t.co/Olt0jLX7eC  \U0001f499\U0001f499
p31
aVbuy 'dangerous woman' by @ArianaGrande on itunes\u000a\u000ahttps://t.co/VevOKspdFZ \u000a\u000a#BuyDangerousWomanOniTunes
p32
aVRT @DENISEVASQUEZ: Like I sing in my song  I'm Back On Track! Listen #Music by Denise Vasquez on @AppleMusic  https://t.co/DpFPHyfBo8
p33
aVRT @GrowthHackLife: Home made Apple Watch #funny #AppleWatch https://t.co/ukdXqUnwR0
p34
aVJapan Free 81. PicGIF Lite - PearlMountain Technology Co., Ltd  https://t.co/2S6MtSsouo  #mac  #apple  8383
p35
aVSee who views your instagram profile most likely with InstaView iPhone and Android app.. @instaviewapps https://t.co/RFc2oTqGlX
p36
aVRT @ninadobrev: Style a beach party look for me in styling app @CovetFashion. Download the app https://t.co/a5kcFP3ca6 now! https://t.co/Sy\u2026
p37
aVGirl Getting Hit With An Apple Vine Compilation || ...\u000aFULL VIDEO HERE: https://t.co/qPye6cbOfg\u000atubv ... - #tubvid https://t.co/UlYBopaJiT
p38
aVRT @ArianaGrande: #BeAlrightTonight \u000a--&gt; https://t.co/X1TBDlUe50 \u2601\ufe0f\u000anew song from #DangerousWoman tonight 9pm pst / midnight est https://t.\u2026
p39
aVI scored 24 points in #Stack\u000ahttps://t.co/2VZeIODwpg https://t.co/lMvgPQ355T
p40
aVmy apple music expires today. let me watch the 1989 world tour again
p41
aVRT @LeeloSoftware: We can't wait for the new season to start ! Leelo News Tracker worldwide free forever @AppStore https://t.co/bQ6kb7LvNO \u2026
p42
aVHey, check out this game, GyroSphere Trials! https://t.co/0lMwmPLg62
p43
aV3 users just unfollowed me. Via @FindUnfollower https://t.co/lMH38tl5Fq. #iPhone #App
p44
aV@SchadenJake I'm not a cider fan but I found it to be well worth the 99 cent investment. Tastes like liquid apple pie.
p45
aVPlace Builder Smurfs new Mountain Hut to give your #SmurfsVillage staircases a smurfy makeover. https://t.co/Jl4EpRSSyl
p46
aVRT @LakersNation: Win two tickets to Kobe\u2019s final game!\u000a\u000aTo enter:\u000a1. RT this tweet\u000a2. Download @TiqIQ\u2019s app:\u000ahttps://t.co/ME7ZoI3MgI https\u2026
p47
aVDangerous Woman by @ArianaGrande \U0001f495 https://t.co/eCTroRRcwm #BuyDangerousWomanOniTunes
p48
aV#BuyDangerousWomanOniTunes by @ArianaGrande if you want to be bald &amp; scalped. https://t.co/UgK16EuzTu https://t.co/fWLjA6LCHb
p49
aVRT @JimmiiMontana: Listen to Ridah - Single by Jimmii Montana on @AppleMusic &amp; #GooglePlay  https://t.co/x6iEpipA41
p50
aVRecipe number 1 with apple butter...scones! Currently cooling but I\u2026 https://t.co/UJGBqfaGhx
p51
aVListen to Here Comes the Sun by The Beatles on @AppleMusic. https://t.co/VyB57BPboh
p52
aVApple Mac Mini A1283 for PARTS /REPAIRS https://t.co/EvLtE0cJqA https://t.co/ABMhgPfqaF
p53
aV*Perfect* Apple iMac w/Wireless Keyboard &amp; Magic Mouse **12 GB Ram for Speed** https://t.co/pl74pKcnka https://t.co/EMdEsULPzA
p54
aVRT @antoniodelotero: 25. my fuckin cinnamon apple https://t.co/hkfDrmiYXT
p55
aVRT @laurenlundberg: wow apple music is actually such a blessing
p56
aV*Perfect* Apple iMac w/Wireless Keyboard &amp; Magic Mouse **12 GB Ram for Speed** https://t.co/66rcUzXLAC https://t.co/wmYLu2bjYl
p57
aV\U0001f4f1\U0001f4f1\u2b508879 Sold- Apple #iPhone5s 16GB Factory Unlocked #Smartphone Gold/Silver/Gray #iPhone\u2026 https://t.co/IaB829J9Ti https://t.co/d4Yp71T4jT
p58
aV#WVMIP: Look who is most interested in you: download from https://t.co/UpRHE0rf2p https://t.co/RyIlskwjnO.twitter https://t.co/FYQupM2HsI
p59
as.