(dp0
I0
(lp1
VRT @earthquakeapp: 2.2 #Earthquake in Albania, #iPhone users download the Earthquake app for more information, https://t.co/V3aZWOAmzK
p2
aV2.2 #Earthquake in Albania, #iPhone users download the Earthquake app for more information, https://t.co/V3aZWOAmzK
p3
aV6.7 #Earthquake in Off East Coast Of Kamchatka., #iPhone users download the Earthquake app for more information, https://t.co/V3aZWOAmzK
p4
aV4.7 #Earthquake in Offshore Coquimbo, Chile, #iPhone users download the Earthquake app for more information, https://t.co/V3aZWOAmzK
p5
aV4.7 #Earthquake in 62Km Wnw Of Illapel, Chile, #iPhone users download the Earthquake app for more information, https://t.co/V3aZWOAmzK
p6
aV3.2 #Earthquake in Northern Algeria, #iPhone users download the Earthquake app for more information, https://t.co/V3aZWOAmzK
p7
aV1.8 #Earthquake in 26Km Ne Of Anchor Point, Alaska, #iPhone users download the Earthquake app for more information, https://t.co/V3aZWOAmzK
p8
aV1.7 #Earthquake in 18Km Ne Of Fairbanks, Alaska, #iPhone users download the Earthquake app for more information, https://t.co/V3aZWOAmzK
p9
aVRT @FotoSanti: 6.6 earthquake in 235Km Wsw Of Nikol'Skoye, Russia ( https://t.co/hOld5CBMaE) https://t.co/7FDED1Lo45 https://t.co/V8vwErxbR7
p10
aV6.6 earthquake - S of Ust'-Kamchatsk Staryy, Russia\u000a\u000a#earthquake #seismos #\u0437\u0435\u043c\u043b\u0435\u0442\u0440\u044f\u0441\u0435\u043d\u0438\u0435  https://t.co/7VjCrTa3ZD https://t.co/mzUqRJyYkH
p11
aV6.6 earthquake in 235Km Wsw Of Nikol'Skoye, Russia ( https://t.co/hOld5CBMaE) https://t.co/7FDED1Lo45 https://t.co/V8vwErxbR7
p12
aVRT @earthquakeapp: 6.5 #Earthquake in Near East Coast Of Kamchatka, #iPhone users download the Earthquake app for more information, https:/\u2026
p13
aVI just noticed this 6.4 earthquake in Near East Coast Of Kamchatka https://t.co/1rlbutguE5 https://t.co/eD9H2Vo4g0 https://t.co/Ixhbm0q210
p14
aV6.5 #Earthquake in Near East Coast Of Kamchatka, #iPhone users download the Earthquake app for more information, https://t.co/V3aZWOAmzK
p15
aVRT @dennischwartz: I just noticed this 6.4 earthquake in Near East Coast Of Kamchatka using Earthquake App  https://t.co/23DVan7zKK https:/\u2026
p16
aVI just noticed this 6.4 earthquake in Near East Coast Of Kamchatka using Earthquake App  https://t.co/23DVan7zKK https://t.co/Yiuiowgeu0
p17
aV6.6 #Earthquake in 235Km Wsw Of Nikol'Skoye, Russia, #iPhone users download the Earthquake app for more information, https://t.co/V3aZWOAmzK
p18
aV6,4 earthquake in Near East Coast Of Kamchatka  https://t.co/S47wokDMwm https://t.co/zn0oJ5gkV8 https://t.co/JsyPW9Q33g
p19
aV6.4 #Earthquake in Near East Coast Of Kamchatka, #iPhone users download the Earthquake app for more information, https://t.co/V3aZWOAmzK
p20
aV4.2 #Earthquake in Coquimbo, Chile, #iPhone users download the Earthquake app for more information, https://t.co/V3aZWOAmzK
p21
aVRT @gurpritsingh191: @Gurmeetramrahim # MSG Help earthquake victims pyare papa ji app mehra karo ji Love you so much papa ji \u2661
p22
aVRT @gurpritsingh191: @Gurmeetramrahim # MSG Help earthquake victims app apne dya maher karey pyare papa ji Love you so much \u2661
p23
aV2.2 #Earthquake in Strait Of Gibraltar, #iPhone users download the Earthquake app for more information, https://t.co/V3aZWOAmzK
p24
aV3.2 #Earthquake in Coquimbo, Chile, #iPhone users download the Earthquake app for more information, https://t.co/V3aZWOAmzK
p25
aVRT @KQEDscience: "Having an earthquake warning system on everybody\u2019s cell phone is sort of the holy grail of seismic civil defense" https:/\u2026
p26
aV0.9 #Earthquake in 2Km N Of The Geysers, California, #iPhone users download the Earthquake app for more information, https://t.co/V3aZWOAmzK
p27
aVRT @earthquakeapp: 2.9 #Earthquake in Central California, #iPhone users download the Earthquake app for more information, https://t.co/V3aZ\u2026
p28
aV2.9 #Earthquake in Central California, #iPhone users download the Earthquake app for more information, https://t.co/V3aZWOAmzK
p29
aV1.3 #Earthquake in 2Km N Of Loma Linda, California, #iPhone users download the Earthquake app for more information, https://t.co/V3aZWOAmzK
p30
aVRT @LastQuake: We received 750 testimonies following last night M4.2 #earthquake offshore #Sweden. Comments on LastQuake app https://t.co/P\u2026
p31
aVRT @earthquakeapp: 2.0 #Earthquake in Western Turkey, #iPhone users download the Earthquake app for more information, https://t.co/V3aZWOAm\u2026
p32
aVRT @earthquakeapp: 2.6 #Earthquake in 95Km Nnw Of Talkeetna, Alaska, #iPhone users download the Earthquake app for more information, https:\u2026
p33
aVRT @earthquakeapp: 0.2 #Earthquake in 47Km E Of Beatty, Nevada, #iPhone users download the Earthquake app for more information, https://t.c\u2026
p34
aV2.9 #Earthquake in 38Km Ese Of Big Pine, California, #iPhone users download the Earthquake app for more information, https://t.co/V3aZWOAmzK
p35
aV4.0 #Earthquake in Mindanao, #iPhone users download the Earthquake app for more information, https://t.co/V3aZWOAmzK
p36
aV4.0 #Earthquake in Mindanao, Philippines, #iPhone users download the Earthquake app for more information, https://t.co/V3aZWOAmzK
p37
aVRT @KQEDscience: "Having an earthquake warning system on everybody\u2019s cell phone is sort of the holy grail of seismic civil defense" https:/\u2026
p38
aVRT @LastQuake: Want to be informed in real time for  possible aftershocks of M4.2 #earthquake offshore #Sweden? get our free app https://t.\u2026
p39
aV2.0 #Earthquake in Western Turkey, #iPhone users download the Earthquake app for more information, https://t.co/V3aZWOAmzK
p40
aVRT @KQEDscience: "Having an earthquake warning system on everybody\u2019s cell phone is sort of the holy grail of seismic civil defense" https:/\u2026
p41
aV"Having an earthquake warning system on everybody\u2019s cell phone is sort of the holy grail of seismic civil defense" https://t.co/bIAM044gdm
p42
aV2.6 #Earthquake in 95Km Nnw Of Talkeetna, Alaska, #iPhone users download the Earthquake app for more information, https://t.co/V3aZWOAmzK
p43
aVRT @LastQuake: We received 750 testimonies following last night M4.2 #earthquake offshore #Sweden. Comments on LastQuake app https://t.co/P\u2026
p44
aV0.2 #Earthquake in 47Km E Of Beatty, Nevada, #iPhone users download the Earthquake app for more information, https://t.co/V3aZWOAmzK
p45
aV3.0 #Earthquake in Oklahoma, #iPhone users download the Earthquake app for more information, https://t.co/V3aZWOiLba
p46
aV3.0 #Earthquake in 21Km W Of Perry, Oklahoma, #iPhone users download the Earthquake app for more information, https://t.co/V3aZWOAmzK
p47
aVhttps://t.co/DR3kqxeS9t\u000aSHAME ON YOU #IAG #BROWNLEE @johnkeypm sits on his pile of $ whilst this crap continues on...
p48
aV4.4 #Earthquake in Coquimbo, Chile, #iPhone users download the Earthquake app for more information, https://t.co/V3aZWOAmzK
p49
aV1.1 #Earthquake in 9Km Ese Of Yucaipa, California, #iPhone users download the Earthquake app for more information, https://t.co/V3aZWOAmzK
p50
aV1.5 #Earthquake in 15Km N Of Ocotillo, California, #iPhone users download the Earthquake app for more information, https://t.co/V3aZWOAmzK
p51
aV2.0 #Earthquake in 58Km Wsw Of Talkeetna, Alaska, #iPhone users download the Earthquake app for more information, https://t.co/V3aZWOAmzK
p52
aV2.6 #Earthquake in Antofagasta, Chile, #iPhone users download the Earthquake app for more information, https://t.co/V3aZWOAmzK
p53
aV2.6 #Earthquake in Island Of Hawaii, Hawaii, #iPhone users download the Earthquake app for more information, https://t.co/V3aZWOAmzK
p54
aVWhat is best earthquake app for iPhone. Free of course.
p55
aV2.6 #Earthquake in 5Km E Of Pahala, Hawaii, #iPhone users download the Earthquake app for more information, https://t.co/V3aZWOAmzK
p56
aV1.5 #Earthquake in 7Km W Of Yountville, California, #iPhone users download the Earthquake app for more information, https://t.co/V3aZWOAmzK
p57
aV2.4 #Earthquake in Puerto Rico Region, #iPhone users download the Earthquake app for more information, https://t.co/V3aZWOAmzK
p58
aV1.9 #Earthquake in 4Km Wnw Of Cobb, California, #iPhone users download the Earthquake app for more information, https://t.co/V3aZWOAmzK
p59
aV2.5 #Earthquake in Southern California, #iPhone users download the Earthquake app for more information, https://t.co/V3aZWOAmzK
p60
aVRT @earthquakeapp: 1.1 #Earthquake in 4Km Wnw Of Cobb, California, #iPhone users download the Earthquake app for more information, https://\u2026
p61
aVRT @earthquakeapp: 3.3 #Earthquake in 5Km Ssw Of Kenwood, California, #iPhone users download the Earthquake app for more information, https\u2026
p62
aVRT @earthquakeapp: 3.1 #Earthquake in 4Km Wnw Of Cobb, California, #iPhone users download the Earthquake app for more information, https://\u2026
p63
aV3.4 #Earthquake in Off Coast Of Oregon, #iPhone users download the Earthquake app for more information, https://t.co/V3aZWOAmzK
p64
aV1.4 #Earthquake in 48Km Wnw Of Ester, Alaska, #iPhone users download the Earthquake app for more information, https://t.co/V3aZWOAmzK
p65
aV2.2 #Earthquake in Eastern Turkey, #iPhone users download the Earthquake app for more information, https://t.co/V3aZWOAmzK
p66
aV0.9 #Earthquake in 4Km Wnw Of Cobb, California, #iPhone users download the Earthquake app for more information, https://t.co/V3aZWOAmzK
p67
aV1.3 #Earthquake in 4Km Wnw Of Cobb, California, #iPhone users download the Earthquake app for more information, https://t.co/V3aZWOAmzK
p68
aV1.7 #Earthquake in 4Km Wnw Of Cobb, California, #iPhone users download the Earthquake app for more information, https://t.co/V3aZWOAmzK
p69
aVRT @earthquakeapp: 3.1 #Earthquake in 4Km Wnw Of Cobb, California, #iPhone users download the Earthquake app for more information, https://\u2026
p70
aVRT @earthquakeapp: 3.3 #Earthquake in 5Km Ssw Of Kenwood, California, #iPhone users download the Earthquake app for more information, https\u2026
p71
aV2.3 #Earthquake in Northern California, #iPhone users download the Earthquake app for more information, https://t.co/V3aZWOAmzK
p72
aV3.1 #Earthquake in Northern California, #iPhone users download the Earthquake app for more information, https://t.co/V3aZWOAmzK
p73
aVRT @earthquakeapp: 1.1 #Earthquake in 4Km Wnw Of Cobb, California, #iPhone users download the Earthquake app for more information, https://\u2026
p74
aV1.2 #Earthquake in Northern California, #iPhone users download the Earthquake app for more information, https://t.co/V3aZWOAmzK
p75
aV2.3 #Earthquake in 4Km Wnw Of Cobb, California, #iPhone users download the Earthquake app for more information, https://t.co/V3aZWOAmzK
p76
aV1.1 #Earthquake in 4Km Wnw Of Cobb, California, #iPhone users download the Earthquake app for more information, https://t.co/V3aZWOAmzK
p77
aV3.3 #Earthquake in 5Km Ssw Of Kenwood, California, #iPhone users download the Earthquake app for more information, https://t.co/V3aZWOAmzK
p78
aV3.1 #Earthquake in 4Km Wnw Of Cobb, California, #iPhone users download the Earthquake app for more information, https://t.co/V3aZWOAmzK
p79
aV4.5 #Earthquake in Hindu Kush Region, Afghanistan, #iPhone users download the Earthquake app for more information, https://t.co/V3aZWOAmzK
p80
aV2.5 #Earthquake in Offshore Coquimbo, Chile, #iPhone users download the Earthquake app for more information, https://t.co/V3aZWOAmzK
p81
aV2.6 #Earthquake in Albania, #iPhone users download the Earthquake app for more information, https://t.co/V3aZWOAmzK
p82
aV4.8 #Earthquake in Southeast Of Loyalty Islands, #iPhone users download the Earthquake app for more information, https://t.co/V3aZWOAmzK
p83
aV4.9 #Earthquake in Southeast Of Loyalty Islands, #iPhone users download the Earthquake app for more information, https://t.co/V3aZWOAmzK
p84
aV5.0 #Earthquake in Southeast Of Loyalty Islands., #iPhone users download the Earthquake app for more information, https://t.co/V3aZWOAmzK
p85
aVRT @earthquakeapp: 1.1 #Earthquake in 4Km W Of Nuevo, California, #iPhone users download the Earthquake app for more information, https://t\u2026
p86
aVRT @earthquakeapp: 4.4 #Earthquake in Southwestern Siberia, Russia, #iPhone users download the Earthquake app for more information, https:/\u2026
p87
aV4.8 #Earthquake in Philippine Islands Region, #iPhone users download the Earthquake app for more information, https://t.co/V3aZWOAmzK
p88
aV#BeInformed: This app could save your life. https://t.co/6d6k5EA3Et
p89
aV0.8 #Earthquake in 10Km S Of Idyllwild, California, #iPhone users download the Earthquake app for more information, https://t.co/V3aZWOAmzK
p90
aV1.1 #Earthquake in 4Km W Of Nuevo, California, #iPhone users download the Earthquake app for more information, https://t.co/V3aZWOAmzK
p91
aVWell bigger challenge is not the technology but adoption by masses https://t.co/QQD5tOEyLK
p92
aV4.4 #Earthquake in Southwestern Siberia, Russia, #iPhone users download the Earthquake app for more information, https://t.co/V3aZWOAmzK
p93
aV4.1 #Earthquake in Andreanof Islands, Aleutian Is., #iPhone users download the Earthquake app for more information, https://t.co/V3aZWOAmzK
p94
aV4.1 #Earthquake in 104Km S Of Atka, Alaska, #iPhone users download the Earthquake app for more information, https://t.co/V3aZWOAmzK
p95
aVRT @earthquakeapp: 4.5 #Earthquake in Xizang, #iPhone users download the Earthquake app for more information, https://t.co/V3aZWOAmzK
p96
aV2.5 #Earthquake in Southeastern Missouri, #iPhone users download the Earthquake app for more information, https://t.co/V3aZWOAmzK
p97
aVRT @springwise: App turns smartphones into seismic monitors\u000ahttps://t.co/BVmoYfSDpu\u000a#earthquake #smartphones https://t.co/UIFBonkMTD
p98
aV2.6 #Earthquake in Near The Coast Of Western Turkey, #iPhone users download the Earthquake app for more information, https://t.co/V3aZWOAmzK
p99
aV0.2 #Earthquake in 54Km Se Of Hawthorne, Nevada, #iPhone users download the Earthquake app for more information, https://t.co/V3aZWOAmzK
p100
aV0.4 #Earthquake in 47Km N Of Pahrump, Nevada, #iPhone users download the Earthquake app for more information, https://t.co/V3aZWOAmzK
p101
as.