(dp0
I0
(lp1
VJournalist Greg Palast Has Proof The 2016 Election Will Be Stolen https://t.co/FBoQ0nuxrQ
p2
aVRivers Election: Hold Buhari accountable for violence, loss of lives - Fayose: Read the press statement below.... https://t.co/27BR8YwHnW
p3
aVSunday, March 20th, 2016:\u000a\u000aWe have a very important primary election coming up June 7th, 2016.  Amongst the various\u2026 https://t.co/ECgjk71bPT
p4
aVRivers Election: Hold Buhari accountable for violence, loss of lives - Fayose: Read the press statement below.... https://t.co/0dYDu9Mrtk
p5
aVRT @BernieSanders: We don't need a bigger wall or more barbed wire. We need a humane immigration policy that keeps families together. \u000ahttp\u2026
p6
aV2016:What We Now Know\u000aThe outcomes of March contests underscored serious splits within GOP&amp;Dems\u000aBy @ElizabethDrewOH \u000ahttps://t.co/4KLgqEmJwA
p7
aVRivers Election: Hold Buhari accountable for violence, loss of lives - Fayose: Read the press statement below.... https://t.co/YPCezKar5w
p8
aVGlenn Beck Tells Fellow Mormons in Utah That Ted Cruz Is the Fulfillment of Their Religious Prophecy @alternet https://t.co/Z5WX3BY2tq
p9
aVMilitary Times survey: Troops back Donald Trump, Bernie Sanders for president https://t.co/QvVtEpUHBO
p10
aVRivers Election: Hold Buhari accountable for violence, loss of lives - Fayose: Read the press statement below.... https://t.co/I0nFvbIKpb
p11
aVJapanese Communist Party to withdraw nine candidates from upcoming upper house election in order to unite opposition https://t.co/uFlyLnMuvM
p12
aVRT @abcnews: Budget brought forward as Turnbull threatens double dissolution election over union laws https://t.co/02EDV1Cais
p13
aVTurnbull announces plans to bring budget forward and threatens double dissolution... https://t.co/UghwrShYGM https://t.co/jVoosYwsUp
p14
aVRT @stephanieando: In case you missed all that, the PM has recalled both houses to debate ABCC ahead of potential July 2 DD election. https\u2026
p15
aVRivers Election: Hold Buhari accountable for violence, loss of lives - Fayose: Read the press statement below.... https://t.co/H5AAO8ATmE
p16
aVTurnbull: double dissolution election will be called if ABCC bill is not passed https://t.co/MNc4zKt8We
p17
aVRT @ProtestPics: 2016 election in one picture https://t.co/kqViJK3YQN
p18
aVAustralia to go to polls if union corruption laws rejected again https://t.co/Jm69yLGLGk via @ABCNews
p19
aV.@TurnbullMalcolm recalls both houses of Parliament and gives election ultimatum. DETAILS: https://t.co/ud9IeaTBsR https://t.co/NX0lTLQQus
p20
aVRT @shelleymlloyd: Australia to go to polls if union corruption laws rejected again https://t.co/I0outh7Tsb \u000aDetails @ABCNewsbrisbane @612b\u2026
p21
aVRivers Election: Hold Buhari accountable for violence, loss of lives - Fayose: Read the press statement below.... https://t.co/KPPJyrgElO
p22
aV#MalcolmTurnbull recalls Parliament for April 18 sitting ahead of early election... https://t.co/zM4GDKPlZk https://t.co/NsYBK0cNQm
p23
aVRivers Election: Hold Buhari accountable for violence, loss of lives - Fayose: Read the press statement below.... https://t.co/WnUzhYJCeQ
p24
aVElection 2016: Malcolm Turnbull names a date  https://t.co/I3RtsdBGDJ via @theage
p25
aVRivers Election: Hold Buhari accountable for violence, loss of lives - Fayose: Read the press statement below.... https://t.co/nsoC8HSVPI
p26
aVRivers Election: Hold Buhari accountable for violence, loss of lives - Fayose: Read the press statement below.... https://t.co/4NkrkiA8Ij
p27
aVProtester Punched, Kicked at Donald Trump Rally in Arizona https://t.co/HwR80DyOhG via @nbcnews
p28
aVTurnbull: double dissolution election will be called if ABCC bill is not passed - https://t.co/EswklF26v9
p29
aVRivers Election: Hold Buhari accountable for violence, loss of lives - Fayose: Read the press statement below.... https://t.co/oDwqmRNPid
p30
aVRivers Election: Hold Buhari accountable for violence, loss of lives - Fayose: Read the press statement below.... https://t.co/5CkSg5vsaY
p31
aVRivers Election: Hold Buhari accountable for violence, loss of lives - Fayose: Read the press statement below.... https://t.co/ps9V9tWhkf
p32
aV#DoubleDare Do it ! #PullItPeter Double dissolution election will be called if ABCC bill is not passed https://t.co/HLeb7XcBZd
p33
aVPM announces plans to bring budget forward and threatens double dissolution election https://t.co/drfixtQqBb #auspol
p34
aVRT @Auntiemels: 24 GOP Senate seats up 4re-election, Nov 2016 Is 1of these ur Senator, u may want 2 c who is running against them https://t\u2026
p35
aVRT @realDonaldTrump: U.S. Senator Bob Corker (R-Tenn.) issued the following statement today regarding the 2016 presidential election: https\u2026
p36
aVTurnbull: double dissolution election will be called if ABCC bill is not passed https://t.co/O497EtCGrZ
p37
aVRT @FoxNews: MONDAY - Trump, Cruz &amp; Kasich All Have Must-See Interviews on Fox News starting at 6p ET! https://t.co/eYmwZ8XKpF\u000ahttps://t.co\u2026
p38
aVHonest question.  How does anybody support this clown?? RT McConnell says R's won't vote for SC nom after election. https://t.co/MmhxCxITi1
p39
aVRT @washingtonpost: Twitter users definitely see the Supreme Court vacancy as an election issue https://t.co/ZnvvuJUBCD
p40
aVRT @Libertea2012: Why Bernie's Revolution Has Just Begun https://t.co/25RD69UM6v #NotMeUs https://t.co/OxrQDyizuM
p41
aVRT @BernieBrigade: Bernie Sanders: Clinton 'creamed us' in south but west coast will be better https://t.co/qi1HU9Zios\u000a#FeelTheBern #OfTheP\u2026
p42
aVBoth houses to be recalled next month. Aus to go to polls if union corruption laws rejected again: https://t.co/c9gvyIOk4h #auspol
p43
aVAustralia to go to polls if union corruption laws rejected again https://t.co/qzgdeInt7h #news
p44
aVMcConnell: no vote on Supreme Court nominee even if Democrat wins election. https://t.co/wztVnbAO1p via @slate
p45
aVRT @JohnFromCranber: Sanders: 'We Don't Need a Wall' https://t.co/03N1sHEJx1 Yes, Lets Let Them All In  #MaristSaboteur #Bankruptcy #tcot h\u2026
p46
aVRT @ProtestPics: 2016 election in one picture https://t.co/kqViJK3YQN
p47
aVIt's on! Turnbull: double dissolution election will be called if ABCC bill is not passed https://t.co/MrcAJPRVhz
p48
aVWell then. \u000ahttps://t.co/izG0YbJ5wM
p49
aVPM will recall Parl in April to pass ABCC laws. He'll call a July 2 double dissolution election if they're blocked https://t.co/pmbBe6DzgI
p50
aVMcConnell says Republicans won't vote for Supreme Court nominee after election. https://t.co/10TTjdGU3C
p51
aVRT @ThomasSSchmitz: #LyinTED Cruz is in some trouble with the FEDERAL ELECTION COMMISSION. Is this why Lyin Ted Cruz hired Jeb Bush\u2019s... ht\u2026
p52
aVRT @realDonaldTrump: U.S. Senator Bob Corker (R-Tenn.) issued the following statement today regarding the 2016 presidential election: https\u2026
p53
aVRT @BernieSanders: We don't need a bigger wall or more barbed wire. We need a humane immigration policy that keeps families together. \u000ahttp\u2026
p54
aVRT @JaredWyand: Marxist @pepperdine Professor @derektmuller suggests overthrowing democracy if Trump likely to win General Election\u000a\u000ahttps:\u2026
p55
aVAustralia will go to the polls if union corruption laws rejected again https://t.co/UEYADPphcH via @ABCNews #auspol https://t.co/wf39vAdPi5
p56
aVTurnbull: double dissolution election will be called if ABCC bill is not passed https://t.co/Q05Fv3iOoC
p57
aVRT @abcnews: Budget brought forward as Turnbull threatens double dissolution election over union laws https://t.co/02EDV1Cais
p58
aVRT @realDonaldTrump: U.S. Senator Bob Corker (R-Tenn.) issued the following statement today regarding the 2016 presidential election: https\u2026
p59
aVRT @abcnews: Budget brought forward as Turnbull threatens double dissolution election over union laws https://t.co/02EDV1Cais
p60
aVI'm pretty sure we can find a law to have him arrestedGarland Shouldn\u2019t Be Considered After Election McConnell Says https://t.co/lS6YHUTfVc
p61
aVRT @abcnews: Budget brought forward as Turnbull threatens double dissolution election over union laws https://t.co/02EDV1Cais
p62
aVRT @BCCSGA: 2016 is an election year at B-CC as well-declare your intention to run https://t.co/29x6XYr38t See who is already in https://t.\u2026
p63
aV.@David_Speers says PM has made a "smart political decision" - but a huge gamble nonetheless. Live @smh @srpeatling https://t.co/q6o54SZuA0
p64
aVPM will recall Parliament to pass the ABCC laws. He'll call a July 2 double dissolution election if they're blocked https://t.co/557pois4XM
p65
aVRT @abcnews: Budget brought forward as Turnbull threatens double dissolution election over union laws https://t.co/02EDV1Cais
p66
aV@Ken200960 @KarenMonsour12 @realDonaldTrump h8 2 tell u ur throwing ur vote away: let the smart $ ppl tell u that https://t.co/iAukQZYTdx
p67
aVRT @WashPIRG: The secret political spending needs to stop. Voters deserve to know who's backing the candidates on their ballot. https://t.c\u2026
p68
aVTurnbull: double dissolution election will be called if ABCC bill is not passed\u000a\u000ahttps://t.co/WTxcqSZrZe
p69
aVRT @washingtonpost: Twitter users definitely see the Supreme Court vacancy as an election issue https://t.co/ZnvvuJUBCD
p70
aVRT @abcnews: Budget brought forward as Turnbull threatens double dissolution election over union laws https://t.co/02EDV1Cais
p71
aVRT @KevinDarryl: @FiveThirtyEight has @HillaryClinton in lead for AZ https://t.co/dgCg23xYNd
p72
aVRT @abcnews: Budget brought forward as Turnbull threatens double dissolution election over union laws https://t.co/02EDV1Cais
p73
aVHuh, so Zootopia is about the 2016 Presidential election.
p74
aVRT @ABCthedrum: The stage is set for an election of blame campaigns | @Drag0nista https://t.co/eJPyhcn3Vw https://t.co/phDCOOgpxt
p75
aV**The Nation\u2019s Official Election Watchdog Is Self-Destructing**\u000a\u000a@BernieSanders @rosevine3 @cann4ing\u000ahttps://t.co/YfcpQ8h15k via @whowhatwhy
p76
aVRT @RemyVarga: Well this is unexpected https://t.co/ZzN7RBO5xQ - via @abcnews
p77
aVRT @realDonaldTrump: U.S. Senator Bob Corker (R-Tenn.) issued the following statement today regarding the 2016 presidential election: https\u2026
p78
aVTurnbull: double dissolution election will be called if ABCC bill is not passed https://t.co/QXTKzWFn5h
p79
aVRT @abcnews: Budget brought forward as Turnbull threatens double dissolution election over union laws https://t.co/02EDV1Cais
p80
aVWhy the Rise of Trump, Cruz and Sanders Is the Logical Result of the 1% Not Paying Taxes @alternet https://t.co/3V1qGKTEQw
p81
aVRT @abcnews: Budget brought forward as Turnbull threatens double dissolution election over union laws https://t.co/02EDV1Cais
p82
aVRT @abcnews: Budget brought forward as Turnbull threatens double dissolution election over union laws https://t.co/02EDV1Cais
p83
aVRT @TheNewDailyAu: .@TurnbullMalcolm: Double dissolution election on July 2 if ABCC bill does not pass: https://t.co/p9tNUXZ5GR #doublediss\u2026
p84
aVRT @abcnews: Budget brought forward as Turnbull threatens double dissolution election over union laws https://t.co/02EDV1Cais
p85
aVRT @ProtestPics: 2016 election in one picture https://t.co/kqViJK3YQN
p86
aVRT @abcnews: Budget brought forward as Turnbull threatens double dissolution election over union laws https://t.co/02EDV1Cais
p87
aVRT @the_intercept: In a normal election cycle, Ted Cruz's foreign policy team would place him at the utmost fringe of his own party. https:\u2026
p88
aVRT @queer5000: mark your calendar peeps! Federal election 2nd July 2016! Time to get rid of the poisonous #LNP once &amp; for all! #DD Bring it\u2026
p89
aVIn case you missed all that, the PM has recalled both houses to debate ABCC ahead of potential July 2 DD election. https://t.co/qszaG2BDRI
p90
aVFascinating piece on US election law history and how a130-year-old-law may play a decisive role in the 2016 election https://t.co/uzrMzTkrlr
p91
aVLooks like @TurnbullMalcolm is serious\u000aPM recall Parl in April to pass the ABCC laws &amp; DD etc https://t.co/DIRILokP6U - via @abcnews
p92
aVRT @the_intercept: In a normal election cycle, Ted Cruz's foreign policy team would place him at the utmost fringe of his own party. https:\u2026
p93
aVRT @realDonaldTrump: U.S. Senator Bob Corker (R-Tenn.) issued the following statement today regarding the 2016 presidential election: https\u2026
p94
aVDonald Trump's sister, son receive threats https://t.co/QTS9I2tGkU #Election_2016 https://t.co/ZmY2wUOYiI
p95
aVDonald Trump's sister, son receive threats https://t.co/Tb4yihRkP8 #Election_2016 #Threatening_Letter
p96
aVRT @equalitync: INFOGRAPHIC: What's at stake for the #LGBT community in the 2016 presidential election via @HRC https://t.co/6q5hLaQ876
p97
aVSoros Board Member Chairs Firm Running Online Voting for Tuesday\u2019s Utah Caucuses https://t.co/5emh2bo49W via @@NorthCrane
p98
aVRT @JaredWyand: Marxist @pepperdine Professor @derektmuller suggests overthrowing democracy if Trump likely to win General Election\u000a\u000ahttps:\u2026
p99
aVRT @joshforprogress: Turnbull: double dissolution election will be called if ABCC bill is not passed\u000a\u000ahttps://t.co/Qc7SpdimFm
p100
aVRT @BBCNewsUS: The percent of remaining delegates each Republican candidate needs to get the nomination https://t.co/dMxYnKwZ3s https://t.c\u2026
p101
as.