(dp0
I0
(lp1
VRT @aravi2dharma: Good to see #SrinivasaRamanujan trending as no 1 in twitter. SASTRA University @SVaidhyasubrama has done great work in nu\u2026
p2
aVRT @aravi2dharma: Good to see #SrinivasaRamanujan trending as no 1 in twitter. SASTRA University @SVaidhyasubrama has done great work in nu\u2026
p3
aVRT @aravi2dharma: Good to see #SrinivasaRamanujan trending as no 1 in twitter. SASTRA University @SVaidhyasubrama has done great work in nu\u2026
p4
aVRT @aravi2dharma: Good to see #SrinivasaRamanujan trending as no 1 in twitter. SASTRA University @SVaidhyasubrama has done great work in nu\u2026
p5
aVRT @aravi2dharma: Good to see #SrinivasaRamanujan trending as no 1 in twitter. SASTRA University @SVaidhyasubrama has done great work in nu\u2026
p6
aVGood to see #SrinivasaRamanujan trending as no 1 in twitter. SASTRA University @SVaidhyasubrama has done great work in nurturing SR's work.
p7
asI1
(lp8
VHello good morning sastra!
p9
asI2
(lp10
sI3
(lp11
sI4
(lp12
Vgood luck for you &amp; persikad \U0001f618\u26bd (with Raja Sastra) [pic] \u2014 https://t.co/IwxYATmioh
p13
asI5
(lp14
s.