(dp0
I0
(lp1
VRT @RessaJuly: @Lowongan_Jogja  English content writer done at home| 800-1 jt |D3 Sastra English | CV+sampel rifzan_ahmad@yahoo.com https:/\u2026
p2
aVRT @JogjaLowKer: #jogjalowker @RessaJuly: English content writer done at home| D3 Sastra English | CV+sampel rifzan_ahmad@yahoo.com https:/\u2026
p3
aVInside Story :: Mahesh Babu shifts venue due to Vastu sastra ? read more: https://t.co/n4zSuifHo4 https://t.co/mh1kX0Wk2J
p4
aVNow, Thats what we Call it as CULTURALZ.....\u000aMass Unlimited @ SASTRA...\u000a\u000aProud to be an Alumni of SASTRA....\u000aRush... https://t.co/6QYPggPTRG
p5
aV@bot_x hmmm okayy
p6
aV@bot_x sorry u.. i busy x sempat nk ws u hmmmm
p7
aVRT @Ninokek: Don't forget guys! @SastraMbois @dmf_sastra https://t.co/Zm8sQDRpBe
p8
aVFinally, get a new book from my lecture \U0001f606\U0001f606 (at Fakultas Sastra, Universitas 17 Agustus 1945, Surabaya) [pic] \u2014 https://t.co/QYrJMtJkUt
p9
aVHH Bhakti Charu Swami: This is the way to see: sastra caksusah. Through the eyes of the scriptures. #ReadPrabhupadasBooks
p10
aVWelcome back luskaaay!!\U0001f601\U0001f60d\U0001f609 @ Fakultas Sastra Universitas Methodist Indonesia https://t.co/0z2rKJ6eVB
p11
aV\U0001f635 translate (with Vina at Fakultas Sastra) [pic] \u2014 https://t.co/gB1wNBtKCM
p12
aV@Sr1vatsanV @smritiirani @RareHistorical @sanjeevsanyal It is now maintained as an International monument by SASTRA  university.
p13
aVSaya suka video @YouTube https://t.co/3WFOgiMjyr [10.01.16] DANCE COVER COMPETITION - C.I.D COVER TO BTS INTRO + DOPE SASTRA VAGANZA
p14
aV\U0001f4f1\U0001f3a7\U0001f483\U0001f3fc\U0001f493 \u266b Still Into You by Paramore (with Sastra at ACA Ambasador) \u2014 https://t.co/cqMePFD9Ud
p15
aVRT @aravi2dharma: Good to see #SrinivasaRamanujan trending as no 1 in twitter. SASTRA University @SVaidhyasubrama has done great work in nu\u2026
p16
aVDon't forget guys! @SastraMbois @dmf_sastra https://t.co/Zm8sQDRpBe
p17
aVRT @aravi2dharma: Good to see #SrinivasaRamanujan trending as no 1 in twitter. SASTRA University @SVaidhyasubrama has done great work in nu\u2026
p18
aVRT @aravi2dharma: Good to see #SrinivasaRamanujan trending as no 1 in twitter. SASTRA University @SVaidhyasubrama has done great work in nu\u2026
p19
aVRT @aravi2dharma: Good to see #SrinivasaRamanujan trending as no 1 in twitter. SASTRA University @SVaidhyasubrama has done great work in nu\u2026
p20
aVRT @aravi2dharma: Good to see #SrinivasaRamanujan trending as no 1 in twitter. SASTRA University @SVaidhyasubrama has done great work in nu\u2026
p21
aVGood to see #SrinivasaRamanujan trending as no 1 in twitter. SASTRA University @SVaidhyasubrama has done great work in nurturing SR's work.
p22
aVRT @RewardsGG: MORE #CSGOskins #GIVEAWAYS on https://t.co/Ny3N7Sh3pI !\u000a\u000aJoin now to win awesome skins for free ! https://t.co/ABPYxSf1dR
p23
aVHappy birthday mpok wati , be the best poko e\u2026 (w/ Hutomo, Andi, &amp; 4 others at Sastra Graha Office Park) [pic] \u2014 https://t.co/bgnrvlPZDs
p24
aVRT @mrvvip: Marshall Sastra and Dion Wiyoko shirtless. Dion seems have a nice bulged! #selebwatch https://t.co/iCfm6BLUMK
p25
aV.@csgohubgg are giving away an Avalanche skin today! https://t.co/IXTydhKNip
p26
aVRT @JogjaLowKer: #jogjalowker @RessaJuly: English content writer done at home| D3 Sastra English | CV+sampel rifzan_ahmad@yahoo.com https:/\u2026
p27
aVHow to Write Stories for Children - #LombaMenulis https://t.co/4UY8rV26ac
p28
aVsastra university volley ball tournment match kc tech vs barathiyar university 4: https://t.co/d5azj8NfH8 via @YouTube
p29
aVI added a video to a @YouTube playlist https://t.co/d5azj8NfH8 sastra university volley ball tournment match kc tech vs barathiyar
p30
asI1
(lp31
VRT @Ninokek: Sucsess for Sastra Dance. Don't forget at GKB Univ. Malang 7.00 pm @SastraMbois @basketballsastra
p32
aVSucsess for Sastra Dance. Don't forget at GKB Univ. Malang 7.00 pm @SastraMbois @basketballsastra
p33
aVSR-6D-Hx, robotic arm\u000aSastra Robotics India Pvt. Ltd., Kalamassery, India\u000ahttps://t.co/mybB31e7vm\u000a@SastraRobotics
p34
aV@Joydas We think Sanskrit only had jyotish. Not vaidya sastra and metallurgy to name few. Sham to call ourselves Indian
p35
aVHome again. Sleeping in AC during summer is heaven especially when u comes from sastra
p36
aV#jogjalowker @RessaJuly: English content writer done at home| D3 Sastra English | CV+sampel rifzan_ahmad@yahoo.com https://t.co/jZiYJ0W3cM
p37
aVTo all #sastra haters.. nee paatha? :-P https://t.co/DTgaN02EVp
p38
aVNew post: "Fakta Nobel Sastra" https://t.co/V3bbtdbxrD
p39
aVhttps://t.co/3zTKMJHTQ9 My-Em in its Space #mahasiswabicara
p40
aV@missusyahya I've been reading "Kajian Budaya Feminis: Tubuh, Sastra, dan Budaya Pop" since week ago and it doesn't stop to amaze me.
p41
aVGemes2 \U0001f48b\U0001f48b\U0001f48b (with Mi, Tito, and 2 others at Sawal sastra) \u2014 https://t.co/HG436U8uMT
p42
aVKumpul asik (with Wildan Catra, Meilika, and 4 others at Gorky park sastra unpad) [pic] \u2014 https://t.co/csqzoh0cDK
p43
aVI'm at Sastra U-Thant https://t.co/mjtXtOSFbU
p44
aVTemu kangen \U0001f608\U0001f608\U0001f608 (with Wildan Catra, M A, and 4 others at Gorky park sastra unpad) [pic] \u2014 https://t.co/f7szM3irJK
p45
aVAmmycuuu\U0001f618\U0001f389 #latesurprise (with Ammy and Dechy at Fakultas sastra unhas) [pic] \u2014 https://t.co/gck5lUjqcH
p46
aV@ERPESTAR sastra all the way \U0001f389\U0001f386\U0001f387\U0001f38a
p47
aVJust posted a photo @ Fakultas Sastra Dan Budaya, UNUD https://t.co/pwBDYGnAit
p48
aV8 sks hmm \U0001f625 (with offB at Mediothek Sastra Jerman FS UM) \u2014 https://t.co/ejo8IxCja2
p49
aVRT @BEMFSasUG: Hiburan dari band Acoustic Sastra 'Paper and String' #StopWaitingStartWriting #TROL https://t.co/wTgxHXpyVM
p50
aVHiburan dari band Acoustic Sastra 'Paper and String' #StopWaitingStartWriting #TROL https://t.co/wTgxHXpyVM
p51
aVHello good morning sastra!
p52
aVSeminar "stop waiting,start writing" (with Sastra at @komunitasug) \u2014 https://t.co/x6GFB8G0nz
p53
aVMorning monday \U0001f304 \u266b GDFR (feat. Sage the Gemini &amp; Lookas) by @official_flo (with Shintia) \u2014 https://t.co/7HkNSmvyXa
p54
aVMorning monday \U0001f304 \u266b GDFR (feat. Sage the Gemini &amp; Lookas) by @official_flo (with Shintia) \u2014 https://t.co/4LY29lRQMH
p55
aVpengertian teori sastra Free Ebook for Download - https://t.co/L4F8NEvKwk  #pengertian #teori #sastra
p56
asI2
(lp57
VRT @Agizo_Jay: Anyone from tanjore and has friends at Sastra, let me know. Need some help
p58
aVAnyone from tanjore and has friends at Sastra, let me know. Need some help
p59
aVGo go go \U0001f3a4\U0001f3b6\U0001f606\U0001f44f [pic] \u2014 https://t.co/gwY3VdjEtJ
p60
aVSAY NO TO TERRORISM !!!\u000a#indonesia #say_no_to_terrorism https://t.co/5KP2lrtYLt
p61
aVSAY NO TO TERRORISM !!!\u000a#indonesia #say_no_to_terrorism https://t.co/2ShL1vNn4R
p62
aV@_prakaashk but I think SASTRA appeals to most parents. They are literally marketing to parents there. There will always be demand.
p63
aV@FauxIngenieur https://t.co/iSMkcN177Y Wow. This shit looks serious.
p64
aV@_prakaashk Search for Ravi Bundela on FB. The guy is a faculty member at SASTRA. Haven't confirmed all of it though.
p65
aVI added a video to a @YouTube playlist https://t.co/3h6VvY7INn Hal Yang Sering Ditanya Ke Anak Sastra!
p66
aV@HMOIndia thr is injustice happening on students and professor at sastra university, thanjavur. Please look upon https://t.co/jOJDfOKilt
p67
aV@PMOIndia thr is injustice happening on students and professor at sastra university, thanjavur. Please look upon https://t.co/PzNNUUw7pt
p68
aV@BDUTT thr is injustice happening on students and professor at sastra university, thanjavur. Please look upon https://t.co/FaGfPCfR6n
p69
aV@abpnewstv thr is injustice happening on students and professor at sastra university, thanjavur. Please look upon https://t.co/c71TApjGzn
p70
aV@timesofindia thr is injustice happening on students and professor at sastra university, thanjavur. Please look upon https://t.co/ljT6M7DtbB
p71
aV@timesofindia thr is injustice happening on students and professor at sastra university, thanjavur. Please look upon https://t.co/QiEFIpI9Rf
p72
aV@aajtak there is injustice happening on students and professor at sastra university, thanjavur. Please look upon. https://t.co/5yTQl8dOGi
p73
aV@ndtv there is injustice happening on students and professor at sastra university, thanjavur. Please look upon. https://t.co/7fgg6huLAW
p74
aV@smritiirani thr is injustice happening on students and professor at sastra university, thanjavur. Plz look upon. https://t.co/qUaCmJNROI
p75
aV@HRDMinistry thr is injustice happening on students and professor at sastra university, thanjavur. Plz look upon https://t.co/WdaKJ538eA
p76
aV@itisprashanth It's not only in Chennai . It's all over Tamil Nadu especially in SASTRA , Tanjore \U0001f613
p77
aVEverybody is changing
p78
aVRT @ne_manza: Photo by @zokyzoker make up @ratureginaa 2016 https://t.co/3lbfz9H5M6
p79
aV\U0001f374 (with Sastra and Apriani at Erando's Kitchen) \u2014 https://t.co/uGLbrWBOp0
p80
aVRT @hinges_16: The official logo of hinges16-annual technical symposium of SOCE, SASTRA finally brought to light..!stay tuned https://t.co/\u2026
p81
aV#sastrauniversity down down sastra university for its inhumane treatment to students nd faculty.. #ravibundela
p82
aVRT @hinges_16: The official logo of hinges16-annual technical symposium of SOCE, SASTRA finally brought to light..!stay tuned https://t.co/\u2026
p83
aVRT @hinges_16: The official logo of hinges16-annual technical symposium of SOCE, SASTRA finally brought to light..!stay tuned https://t.co/\u2026
p84
aVRT @hinges_16: The official logo of hinges16-annual technical symposium of SOCE, SASTRA finally brought to light..!stay tuned https://t.co/\u2026
p85
aVI'm at Pool @ Sastra U-Thant https://t.co/XpT0kwFrx5
p86
aVRT @hinges_16: The official logo of hinges16-annual technical symposium of SOCE, SASTRA finally brought to light..!stay tuned https://t.co/\u2026
p87
aVThe official logo of hinges16-annual technical symposium of SOCE, SASTRA finally brought to light..!stay tuned https://t.co/hjQ8gPuNM2
p88
aV.@csgohubgg are giving away an Imperial skin today! https://t.co/QdLrARHt8j
p89
aV@thejensie @AmgenTOC how did u compete against Jan, Lance, Tyler, Sastra, Floyd and many other cheats? Because you were cheating too? Yes.
p90
aVSastra University? Ravi Bundela on hunger strike for 3 days. @newslaundry @AbhinandanSekhr @madhutrehan @ravishndtv https://t.co/TaOddl8k43
p91
aVRT @mrvvip: Marshall Sastra and Dion Wiyoko shirtless. Dion seems have a nice bulged! #selebwatch https://t.co/iCfm6BLUMK
p92
asI3
(lp93
V@belajarERP: #ERPT07E Master Data Template Module of Accounting... https://t.co/UVKTlPMIBi
p94
aV@belajarERP #ERPT07B Bizagi Modul Accounting and Finance PT. J... https://t.co/ywXSbftLiB
p95
aV@RavishKvmar A young Asst.Proff. on hunger strike4Students\u000alast 3days in Sastra University Thanjavur Tamilnadu\u000a#Mediasilent\u000aSir plz help him
p96
aVJoy and fulfillment keep us healthy and extend life  ~ Friendship since 1983, Fakultas Sastra\u2026 https://t.co/oQqYlvUedv
p97
aVA young Asst.Proff. on hunger strike for Students\u000alast 3days in Sastra University Thanjavur #Tamilnadu\u000a#Mediasilent https://t.co/hXG5JdKZxg
p98
aVone person unfollowed me // automatically checked by https://t.co/vQOn7CwCcA
p99
aVI liked a @YouTube video https://t.co/zldBadDZo9 SASTRA DANCE TEAM HOST PERFORMANCE at KURUKSASTRA '16
p100
aVON\U0001f64c\U0001f601 (with Wempy Irdian Sastra, Wawan, and 3 others) [pic] \u2014 https://t.co/J8wAD8JdB3
p101
aVNew update "Sastra = you"\u000ahttps://t.co/Q2tpVySVzT and more\u2026 - Stickmoticons \u2014 https://t.co/UaJT3HuVHu
p102
aV[ V ] @Rivaillex_ Rivaille Ackerman from Shingeki no Kyojin in TulipDorm, club Sastra. Welcome! Keep active and have fun with us!
p103
aVLabel sastra di Indonesia memang 'mahal' Om :") \u000aStill, I'm your huge fan. Since I was know nothing about literature.
p104
aVPILLOWTALK by ZAYN (at Fakultas sastra unhas) \u2014 https://t.co/bxV13IG0xW
p105
aVhttps://t.co/3zTKMJZuHH My-Em in its Space #mahasiswabicara
p106
aV@OtakuRadios_RPs [ Yo, bocah. I'm Rivaille Ackerman from SnK in TulipDrom, Club Sastra, Black. will join this agency. verif me? ]
p107
aVRomansa Sastra \u2728\u000a.\u000a.\u000a.\u000aSastra Fun Gathering 2016 (with @bemfsasug and SastraGunadarma at @komunitasug) \u2014 https://t.co/a4GJm8nDuz
p108
aVH'p b'day edis sayang...\U0001f618\U0001f618\U0001f618\U0001f618\u000a\u000a#HangOut with bestie" (w/ beltsazar, Angel, &amp; 5 others at Canteen Sastra) [pic] \u2014 https://t.co/WpdPpx2Y0p
p109
aVI added a video to a @YouTube playlist https://t.co/3h6VvY7INn Hal Yang Sering Ditanya Ke Anak Sastra!
p110
aVNgapain (?) (with invisible at Open English Project-Multimedia Lab. Owned by Sastra Inggris Unisma) \u2014 https://t.co/kyga3LKfNx
p111
aVRT @AyyappanRamasam: #\u092c\u093e\u092a\u0942\u091c\u0940_\u0915\u094b_\u0928\u094d\u092f\u093e\u092f_\u092e\u093f\u0932\u0947\u000a"Rape is Saint's Dharma"-Ancient Sastra\u000aBut \u000a"Rape is not Saint's Dharma"-Indian Constitution
p112
aVBTBG Bundles Giveaway https://t.co/PFJ2KZm2qt
p113
aV#physics Spectrometer   Diffraction Grating experiment physics lab ... - https://t.co/8YBqEaMP7k #RT #Retweet https://t.co/X5a5uqb5kx
p114
aVI'm at Sastra U-Thant https://t.co/K5slsM7ac7
p115
aVpasti Marshall Sastra dong... https://t.co/2Wiia9Mh5T
p116
aVThe last mid test speaking hfftt. Bismillah (with risma, burhan, and 2 others at Fakultas Sastra) \u2014 https://t.co/SHg5D0WuIE
p117
aVRT @AyyappanRamasam: #\u092c\u093e\u092a\u0942\u091c\u0940_\u0915\u094b_\u0928\u094d\u092f\u093e\u092f_\u092e\u093f\u0932\u0947\u000a"Rape is Saint's Dharma"-Ancient Sastra\u000aBut \u000a"Rape is not Saint's Dharma"-Indian Constitution
p118
aVCan I get IT in sastra university if get 978 marks in ts intermediate board? https://t.co/CshkiCX04Y
p119
aVAdventure of a lifetime -marshall sastra.
p120
aVRT @AyyappanRamasam: #\u092c\u093e\u092a\u0942\u091c\u0940_\u0915\u094b_\u0928\u094d\u092f\u093e\u092f_\u092e\u093f\u0932\u0947\u000a"Rape is Saint's Dharma"-Ancient Sastra\u000aBut \u000a"Rape is not Saint's Dharma"-Indian Constitution
p121
aVSastra fun gathering (with Banyakkkk at @komunitasug) \u2014 https://t.co/dAvERWmRZu
p122
aV#\u092c\u093e\u092a\u0942\u091c\u0940_\u0915\u094b_\u0928\u094d\u092f\u093e\u092f_\u092e\u093f\u0932\u0947\u000a"Rape is Saint's Dharma"-Ancient Sastra\u000aBut \u000a"Rape is not Saint's Dharma"-Indian Constitution
p123
aVMarshall sastra\u2665
p124
aV"You just happy happy\u2026 \u266b Don't Cry for Me Argentina by Madonna (w/ Lintas Minat Sastra Inggris 3 at @sandi_0505) \u2014 https://t.co/yDr2YyfNmD
p125
aVRT @RewardsGG: Let's do some @G2A_com gift cards #giveaways in 2 hours ;)\u000a\u000ahttps://t.co/wv5VqcldAf\u000a\u000aBe ready! https://t.co/vhcrZ3FprD
p126
aVsastra university volley ball tournment match kc tech vs barathiyar university 2: https://t.co/Fc73ScRMXq
p127
asI4
(lp128
Vsastra university volley ball tournment match kc tech vs barathiyar university 5: https://t.co/Kc917ZNWBk via @YouTube
p129
aVsastra university volley ball tournment match kc tech vs barathiyar university 2: https://t.co/ulFR8I9PFl via @YouTube
p130
aVI added a video to a @YouTube playlist https://t.co/ulFR8I9PFl sastra university volley ball tournment match kc tech vs barathiyar
p131
aVWill Sastra university offer https://t.co/aXn8XuzmXV food technology? https://t.co/aBg4RK8d5W
p132
aV#rudokpejantantangguh! (with Itha, Eka Pramana, and 8 others) [vid] \u2014 https://t.co/5YD7rUnttz
p133
aVVery awesome! Novel sastra yg bernuansa horor,\u2026 \u2013 Reading Beauty Is a Wound by Eka Kurniawan &amp; Annie Tucker \u2014 https://t.co/Lr2IM3v0PD
p134
aVWhat is the closing rank of SASTRA in stream 2? https://t.co/fTcf8c9TjA
p135
aVSore tadi \u270c\U0001f601 (with Wempy Irdian Sastra at Ba'im Risoles) [pic] \u2014 https://t.co/mPh7qkrpRq
p136
aVWith Aldy, Rizky, and sastra  at Warung Wareg Pizza \u2014 https://t.co/9WUWeW9iqA
p137
aV\U0001f483 (with Rima at Santy Sastra Production) \u2014 https://t.co/rObLaLOpzG
p138
aVgood luck for you &amp; persikad \U0001f618\u26bd (with Raja Sastra) [pic] \u2014 https://t.co/IwxYATmioh
p139
aV\U0001f4da (with Brilian at Gedung E7 Sastra) [pic] \u2014 https://t.co/9xlwZceUQx
p140
aVbitLanders offers! https://t.co/GtFnREv3S7 lewat @bitlanders
p141
aVUnforgettable moment 21 April 2016 \U0001f49a\U0001f499\U0001f49b\U0001f49c\u2764\ufe0f @ Fakultas Sastra dan\u2026 https://t.co/dzwYr6tsrC
p142
aVTHE RADIANCE OF LITERATURE @BEMFSasUG TOEFL, Sastra Fun Gathering, Seminar of Writing 22, 23, 25 April 2016 #Medpar\u000ahttps://t.co/VycGEIMmvv
p143
aVBack to home \U0001f60a btech life is over. #nostalgic #feelings #one #last #time #sastra #the #best #university
p144
aVRT @RewardsGG: 16 Winners yesterday on https://t.co/Ny3N7Sh3pI ! How many today? #CSGOSKINS #GAMES #CARDS \u000a\u000a#1 #GIVEAWAYS PLATFORM https://\u2026
p145
aV.@csgohubgg are giving away an Muertos skin today! https://t.co/5fdyIjwkSF
p146
aVhappy Friday\u2615 (at Sastra Graha Office Park) [pic] \u2014 https://t.co/Vf9XIrMrG8
p147
aVFriday! (at Fakultas Sastra) \u2014 https://t.co/Fz90HSVBqB
p148
asI5
(lp149
VBreak in the fast \U0001f698 (at @alfamartku) [pic] \u2014 https://t.co/M2vUvK6aU3
p150
aVSave our planet for our children, for our generation https://t.co/emLRJvCfRu
p151
aVRT @SastraUniv: Dean of SASTRA points out errors in varsity rankings https://t.co/BlNoM3tBu2
p152
aVI liked a @YouTube video from @cesarallen https://t.co/3h6VvY7INn Hal Yang Sering Ditanya Ke Anak Sastra!
p153
aVRT @jmbartomeu: We unveil the #NouCampNou, a dream open to the world, which we are facing with responsibility, hope and pride https://t.co/\u2026
p154
aVOne big reason I love Tanjore are these Incredible Sunsets!  \u000a#Sexy @ Sastra university,\u2026 https://t.co/Ip29wEBajW
p155
aVhttps://t.co/3zTKMJZuHH My-Em in its Space #mahasiswabicara
p156
aVRT @InspiratorFreak: BEM Fakultas Sastra Universitas Gunadarma present \u201cThe Radiance of Literature\u201d!! For more info: @BEMFSasUG https://t.c\u2026
p157
aVSastra's graduation and the brothers https://t.co/9auCPFeDg9
p158
aV#Repost sastrabasketball with repostapp\u000a\u30fb\u30fb\u30fb\u000aCome and support our @sastrambois Sastra Ladies\u2026 https://t.co/2TnXb31JuE
p159
aVWatching Knocked Up \u2014 https://t.co/CH4uheuyIm
p160
aV(17/4) one of Sastra Leadership Training Crew.\u000a.\u000a.\u000a.\u000a.\u000a.\u000a.\u000awe create a new story to be\u2026 https://t.co/yAIy7iQ45S
p161
aVOnce again sureprise from my best friend I ever\u2026 (w/ Tunjung, Vivian, &amp; Sastra Andika at Bangi Kopitiam) [pic] \u2014 https://t.co/WB6Z9ZtCLX
p162
aVDean of SASTRA points out errors in varsity rankings https://t.co/BlNoM3tBu2
p163
aVRT @RessaJuly: @Lowongan_Jogja  English content writer done at home| 800-1 jt |D3 Sastra English | CV+sampel rifzan_ahmad@yahoo.com https:/\u2026
p164
aVThrowing back to Sastra Vaganza Matsuri 2016. I love this moment. Sure we can be the greatest team that the world \u2026 https://t.co/lI3Q9YpckU
p165
aVHow to Face Your Fears with Adventure Junkie Marshall Sastra https://t.co/jJ0lB6xm8t @marshallsastra
p166
aVAn Interview with James Maynard: 2014 SASTRA Ramanujan Prize winner https://t.co/gx0TdCCaYV via @gonitsora
p167
aV.@csgohubgg are giving away an StatTrak\u2122 Survivor Z skin today! https://t.co/zV1mprMPiK
p168
aVcieeeeee tes camera cieeeee. (with Deva \U0001f43c and Amy at Sastra Graha Office Park) [pic] \u2014 https://t.co/Ou8J0IJ4mT
p169
aVlastnight #bazaarteknik2016 https://t.co/uE0XknZAao
p170
aVSastra University Online Application- https://t.co/MiW3hHkeAu \u2013 UG Application Form https://t.co/QxmCn5Gk3x
p171
aVIntro to educational research (with Purnama, Upi , and 2 others at Fakultas Bahasa dan Sastra UNM) [pic] \u2014 https://t.co/COUlGEO0Be
p172
aVBEM Fakultas SASTRA Universitas Gunadarma proudly presents :\u000a\u000a"The Radiance of Literature"\u000a\u000aTiga\u2026 https://t.co/hyqdu5EZxY
p173
as.